(dp0
S"#'"
p1
F8.0
sS'.-'
p2
F152.0
sS'-}'
p3
F1.0
sS'?9'
p4
F38.0
sS'-@'
p5
F24.0
sS';7'
p6
F7.0
sS'.8'
p7
F508.0
sS'-|'
p8
F3.0
sS'\\]'
p9
F9.0
sS')['
p10
F0.0
sS'"c'
p11
F4.0
sS')]'
p12
F2.0
sS')\\'
p13
F1.0
sS')_'
p14
F22.0
sS')^'
p15
F25.0
sS'-~'
p16
F0.0
sS'?]'
p17
F0.0
sS'-p'
p18
F1082.0
sS'&p'
p19
F214.0
sS'&q'
p20
F14.0
sS'&r'
p21
F240.0
sS'&s'
p22
F441.0
sS'&t'
p23
F341.0
sS'&u'
p24
F35.0
sS'&v'
p25
F58.0
sS'&w'
p26
F70.0
sS'&x'
p27
F14.0
sS'&y'
p28
F84.0
sS'&z'
p29
F41.0
sS'&{'
p30
F0.0
sS'&|'
p31
F0.0
sS'&}'
p32
F1.0
sS'&~'
p33
F0.0
sS'-y'
p34
F354.0
sS'&`'
p35
F0.0
sS'&a'
p36
F344.0
sS'&b'
p37
F385.0
sS'&c'
p38
F356.0
sS'&d'
p39
F290.0
sS'&e'
p40
F138.0
sS'&f'
p41
F108.0
sS'&g'
p42
F136.0
sS'&h'
p43
F132.0
sS'&i'
p44
F108.0
sS'&j'
p45
F439.0
sS'&k'
p46
F255.0
sS'&l'
p47
F286.0
sS'&m'
p48
F675.0
sS'&n'
p49
F165.0
sS'&o'
p50
F96.0
sS';8'
p51
F17.0
sS'-^'
p52
F4.0
sS'&['
p53
F0.0
sS'&\\'
p54
F3.0
sS'&]'
p55
F1.0
sS'&^'
p56
F20.0
sS'&_'
p57
F5.0
sS'&@'
p58
F20.0
sS'-['
p59
F7.0
sS'[~'
p60
F2.0
sS'/9'
p61
F695.0
sS'.9'
p62
F832.0
sS'&0'
p63
F25.0
sS'&1'
p64
F74.0
sS'&2'
p65
F47.0
sS'&3'
p66
F18.0
sS'&4'
p67
F25.0
sS'&5'
p68
F18.0
sS'&6'
p69
F15.0
sS'&7'
p70
F28.0
sS'&8'
p71
F14.0
sS'&9'
p72
F22.0
sS'&:'
p73
F1.0
sS'&;'
p74
F0.0
sS'&<'
p75
F2.0
sS'&='
p76
F1.0
sS'&>'
p77
F0.0
sS'&?'
p78
F6.0
sS'&!'
p79
F13.0
sS'&"'
p80
F2.0
sS'&#'
p81
F23.0
sS'&$'
p82
F17.0
sS'&%'
p83
F13.0
sS'&&'
p84
F169.0
sS"&'"
p85
F1.0
sS'&('
p86
F12.0
sS'&)'
p87
F7.0
sS'&*'
p88
F88.0
sS'&+'
p89
F3.0
sS'&,'
p90
F1.0
sS'&-'
p91
F0.0
sS'&.'
p92
F2.0
sS'&/'
p93
F9.0
sS'-c'
p94
F1139.0
sS'.$'
p95
F7.0
sS'-z'
p96
F222.0
sS'-b'
p97
F1856.0
sS'-m'
p98
F1629.0
sS'-l'
p99
F1417.0
sS'+4'
p100
F80.0
sS'-o'
p101
F522.0
sS'9i'
p102
F784.0
sS'9h'
p103
F767.0
sS'9k'
p104
F916.0
sS'9j'
p105
F1049.0
sS'9m'
p106
F1429.0
sS'9l'
p107
F928.0
sS'9o'
p108
F803.0
sS'9n'
p109
F902.0
sS'9a'
p110
F1670.0
sS'9`'
p111
F21.0
sS'9c'
p112
F1218.0
sS'9b'
p113
F1338.0
sS'9e'
p114
F1089.0
sS'9d'
p115
F1043.0
sS'9g'
p116
F721.0
sS'9f'
p117
F677.0
sS'9y'
p118
F488.0
sS'9x'
p119
F538.0
sS'9{'
p120
F1.0
sS'9z'
p121
F394.0
sS'9}'
p122
F9.0
sS'9|'
p123
F2.0
sS'9~'
p124
F31.0
sS'9q'
p125
F238.0
sS'9p'
p126
F901.0
sS'9s'
p127
F1429.0
sS'9r'
p128
F1082.0
sS'9u'
p129
F361.0
sS'9t'
p130
F1116.0
sS'9w'
p131
F515.0
sS'9v'
p132
F372.0
sS'm%'
p133
F18.0
sS'm$'
p134
F60.0
sS"m'"
p135
F28.0
sS'm&'
p136
F269.0
sS'm!'
p137
F640.0
sS'm#'
p138
F201.0
sS'm"'
p139
F7.0
sS'm-'
p140
F698.0
sS'm,'
p141
F362.0
sS'm/'
p142
F112.0
sS'm.'
p143
F1639.0
sS'm)'
p144
F20.0
sS'm('
p145
F44.0
sS'm+'
p146
F130.0
sS'm*'
p147
F290.0
sS'm5'
p148
F3289.0
sS'm4'
p149
F5122.0
sS'm7'
p150
F3692.0
sS'm6'
p151
F3313.0
sS'm1'
p152
F23621.0
sS'm0'
p153
F9612.0
sS'm3'
p154
F6073.0
sS'm2'
p155
F11292.0
sS'm='
p156
F123.0
sS'm<'
p157
F56.0
sS'm?'
p158
F60.0
sS'm>'
p159
F5.0
sS'm9'
p160
F3837.0
sS'm8'
p161
F4099.0
sS'm;'
p162
F40.0
sS'm:'
p163
F25.0
sS'9)'
p164
F55.0
sS'9('
p165
F20.0
sS'9+'
p166
F168.0
sS'9*'
p167
F623.0
sS'9-'
p168
F409.0
sS'm@'
p169
F752.0
sS'9/'
p170
F382.0
sS'9.'
p171
F597.0
sS'9!'
p172
F390.0
sS'"h'
p173
F3.0
sS'9#'
p174
F53.0
sS'9"'
p175
F5.0
sS'9%'
p176
F43.0
sS'9$'
p177
F71.0
sS"9'"
p178
F18.0
sS'9&'
p179
F16.0
sS'99'
p180
F115050.0
sS'98'
p181
F93711.0
sS'9;'
p182
F19.0
sS'9:'
p183
F30.0
sS'9='
p184
F42.0
sS'9<'
p185
F6.0
sS'9?'
p186
F83.0
sS'9>'
p187
F2.0
sS'm]'
p188
F13.0
sS'm\\'
p189
F17.0
sS'm_'
p190
F1420.0
sS'm^'
p191
F10.0
sS'95'
p192
F47237.0
sS'94'
p193
F44557.0
sS'm['
p194
F23.0
sS'96'
p195
F51577.0
sS'me'
p196
F130457.0
sS'md'
p197
F6170.0
sS'mg'
p198
F6225.0
sS'mf'
p199
F4179.0
sS'ma'
p200
F257079.0
sS'm`'
p201
F15.0
sS'mc'
p202
F13874.0
sS'mb'
p203
F33248.0
sS'mm'
p204
F42684.0
sS'ml'
p205
F7118.0
sS'mo'
p206
F128214.0
sS'mn'
p207
F7846.0
sS'mi'
p208
F126177.0
sS'mh'
p209
F6623.0
sS'mk'
p210
F5804.0
sS'mj'
p211
F6106.0
sS'mu'
p212
F30145.0
sS'mt'
p213
F7535.0
sS'mw'
p214
F3597.0
sS'mv'
p215
F2300.0
sS'mq'
p216
F622.0
sS'mp'
p217
F39805.0
sS'ms'
p218
F23718.0
sS'mr'
p219
F9918.0
sS'm}'
p220
F14.0
sS'm|'
p221
F1.0
sS'"m'
p222
F7.0
sS'm~'
p223
F46.0
sS'my'
p224
F44698.0
sS'mx'
p225
F2028.0
sS'm{'
p226
F4.0
sS'mz'
p227
F4866.0
sS'"r'
p228
F8.0
sS'"s'
p229
F21.0
sS'"|'
p230
F0.0
sS'"}'
p231
F1.0
sS'.:'
p232
F9.0
sS'"~'
p233
F0.0
sS'}p'
p234
F5.0
sS'<-'
p235
F4.0
sS'~;'
p236
F0.0
sS'"x'
p237
F0.0
sS'-r'
p238
F1034.0
sS',:'
p239
F5.0
sS'"y'
p240
F1.0
sS'"z'
p241
F5.0
sS'.;'
p242
F15.0
sS'"{'
p243
F0.0
sS'$o'
p244
F40.0
sS'??'
p245
F873.0
sS'}n'
p246
F0.0
sS'.<'
p247
F21.0
sS'"@'
p248
F0.0
sS'?$'
p249
F1.0
sS'|_'
p250
F8.0
sS'.='
p251
F7.0
sS'__'
p252
F700.0
sS'_^'
p253
F26.0
sS'_]'
p254
F0.0
sS'_\\'
p255
F4.0
sS'_['
p256
F1.0
sS'~n'
p257
F68.0
sS'^%'
p258
F21.0
sS'@m'
p259
F911.0
sS'"n'
p260
F4.0
sS'.>'
p261
F2.0
sS'~~'
p262
F433.0
sS'_@'
p263
F150.0
sS'_~'
p264
F11.0
sS'_}'
p265
F1.0
sS'_|'
p266
F4.0
sS'_{'
p267
F3.0
sS'_z'
p268
F314.0
sS'_y'
p269
F472.0
sS'_x'
p270
F491.0
sS'_w'
p271
F533.0
sS'_v'
p272
F341.0
sS'_u'
p273
F285.0
sS'_t'
p274
F1354.0
sS'_s'
p275
F2012.0
sS'_r'
p276
F1433.0
sS'_q'
p277
F118.0
sS'_p'
p278
F1589.0
sS'_o'
p279
F525.0
sS'.?'
p280
F30.0
sS'_m'
p281
F2140.0
sS'_l'
p282
F1834.0
sS'_k'
p283
F970.0
sS'_j'
p284
F926.0
sS'_i'
p285
F561.0
sS'_h'
p286
F708.0
sS'_g'
p287
F1294.0
sS'_f'
p288
F785.0
sS'_e'
p289
F676.0
sS'_d'
p290
F1175.0
sS'_c'
p291
F1701.0
sS'1['
p292
F9.0
sS'_a'
p293
F1700.0
sS'_`'
p294
F3.0
sS'-%'
p295
F0.0
sS'_#'
p296
F34.0
sS'-$'
p297
F6.0
sS'1]'
p298
F45.0
sS'?;'
p299
F2.0
sS"-'"
p300
F2.0
sS'1\\'
p301
F54.0
sS'-&'
p302
F0.0
sS'1_'
p303
F469.0
sS'"]'
p304
F0.0
sS'-!'
p305
F7.0
sS'1^'
p306
F11.0
sS'_?'
p307
F15.0
sS'_>'
p308
F1.0
sS'_='
p309
F6.0
sS'_<'
p310
F6.0
sS'_;'
p311
F1.0
sS'-#'
p312
F6.0
sS'_9'
p313
F1819.0
sS'1@'
p314
F935.0
sS'_7'
p315
F916.0
sS'_6'
p316
F912.0
sS'?:'
p317
F5.0
sS'-"'
p318
F1.0
sS'_3'
p319
F1200.0
sS'.1'
p320
F4153.0
sS'_1'
p321
F9420.0
sS'_0'
p322
F3640.0
sS'_/'
p323
F12.0
sS'--'
p324
F768.0
sS'_-'
p325
F33.0
sS'_,'
p326
F4.0
sS'_+'
p327
F39.0
sS'_*'
p328
F60.0
sS'_)'
p329
F25.0
sS'-,'
p330
F5.0
sS"_'"
p331
F0.0
sS'_&'
p332
F6.0
sS'_%'
p333
F5.0
sS'_$'
p334
F10.0
sS'*f'
p335
F92.0
sS'-/'
p336
F19.0
sS'_!'
p337
F43.0
sS'"$'
p338
F1.0
sS'_('
p339
F11.0
sS'+@'
p340
F8.0
sS'"%'
p341
F4.0
sS'r\\'
p342
F86.0
sS'r]'
p343
F158.0
sS'r^'
p344
F43.0
sS'r_'
p345
F3195.0
sS'"&'
p346
F2.0
sS'r['
p347
F25.0
sS'"\''
p348
F1.0
sS'r@'
p349
F1362.0
sS'-+'
p350
F129.0
sS'+['
p351
F0.0
sS'-*'
p352
F151.0
sS'+_'
p353
F26.0
sS'+^'
p354
F0.0
sS'+]'
p355
F0.0
sS'"!'
p356
F4.0
sS'rt'
p357
F73271.0
sS'ru'
p358
F76626.0
sS'rv'
p359
F9527.0
sS'rw'
p360
F7298.0
sS'rp'
p361
F18962.0
sS'rq'
p362
F2485.0
sS'rr'
p363
F55763.0
sS'rs'
p364
F63337.0
sS'r|'
p365
F5.0
sS'r}'
p366
F16.0
sS'r~'
p367
F149.0
sS'"#'
p368
F7.0
sS'rx'
p369
F3011.0
sS'ry'
p370
F59634.0
sS'rz'
p371
F7664.0
sS'r{'
p372
F4.0
sS'rd'
p373
F58643.0
sS're'
p374
F271580.0
sS'rf'
p375
F16041.0
sS'rg'
p376
F26951.0
sS'r`'
p377
F42.0
sS'ra'
p378
F299730.0
sS'rb'
p379
F25879.0
sS'rc'
p380
F28892.0
sS'rl'
p381
F68808.0
sS'rm'
p382
F35696.0
sS'rn'
p383
F33024.0
sS'ro'
p384
F246172.0
sS'rh'
p385
F18049.0
sS'ri'
p386
F259125.0
sS'rj'
p387
F10617.0
sS'rk'
p388
F30063.0
sS'"/'
p389
F0.0
sS'-3'
p390
F528.0
sS'.4'
p391
F476.0
sS'\\['
p392
F1.0
sS'"('
p393
F3.0
sS'-2'
p394
F1454.0
sS'")'
p395
F4.0
sS'-='
p396
F106.0
sS'"*'
p397
F2.0
sS'-<'
p398
F4.0
sS'"+'
p399
F1.0
sS'_"'
p400
F2.0
sS'-?'
p401
F5.0
sS'r4'
p402
F11740.0
sS'r5'
p403
F8622.0
sS'r6'
p404
F8333.0
sS'r7'
p405
F9118.0
sS'r0'
p406
F20256.0
sS'r1'
p407
F54168.0
sS'r2'
p408
F25529.0
sS'r3'
p409
F13861.0
sS'r<'
p410
F95.0
sS'r='
p411
F205.0
sS'r>'
p412
F12.0
sS'r?'
p413
F190.0
sS'r8'
p414
F9819.0
sS'r9'
p415
F9483.0
sS'r:'
p416
F50.0
sS'r;'
p417
F105.0
sS'r$'
p418
F246.0
sS'r%'
p419
F44.0
sS'r&'
p420
F357.0
sS"r'"
p421
F137.0
sS'+7'
p422
F51.0
sS'r!'
p423
F1951.0
sS'r"'
p424
F15.0
sS'r#'
p425
F773.0
sS'r,'
p426
F240.0
sS'r-'
p427
F1631.0
sS'r.'
p428
F3375.0
sS'r/'
p429
F188.0
sS'r('
p430
F82.0
sS'r)'
p431
F48.0
sS'r*'
p432
F806.0
sS'r+'
p433
F181.0
sS'>8'
p434
F0.0
sS'>9'
p435
F0.0
sS'>:'
p436
F2.0
sS'.6'
p437
F423.0
sS'><'
p438
F41.0
sS'"2'
p439
F5.0
sS'>>'
p440
F50.0
sS'>?'
p441
F17.0
sS'>0'
p442
F5.0
sS'>1'
p443
F15.0
sS'>2'
p444
F5.0
sS'"3'
p445
F7.0
sS'>4'
p446
F1.0
sS'>5'
p447
F0.0
sS'>6'
p448
F1.0
sS'>7'
p449
F2.0
sS'>('
p450
F0.0
sS'"<'
p451
F0.0
sS'>*'
p452
F0.0
sS'>+'
p453
F0.0
sS'>,'
p454
F0.0
sS'>-'
p455
F0.0
sS'>.'
p456
F4.0
sS'>/'
p457
F2.0
sS'>!'
p458
F0.0
sS'>"'
p459
F0.0
sS'>#'
p460
F2.0
sS',-'
p461
F15.0
sS'">'
p462
F0.0
sS'>&'
p463
F0.0
sS">'"
p464
F0.0
sS'.7'
p465
F428.0
sS'"?'
p466
F1.0
sS'1`'
p467
F227.0
sS'"8'
p468
F2.0
sS'"9'
p469
F1.0
sS'":'
p470
F5.0
sS'1e'
p471
F2743.0
sS'";'
p472
F0.0
sS'1d'
p473
F3258.0
sS'>x'
p474
F2.0
sS'>y'
p475
F0.0
sS'>z'
p476
F0.0
sS'>{'
p477
F0.0
sS'>|'
p478
F1.0
sS'1g'
p479
F2496.0
sS'>~'
p480
F1.0
sS'>p'
p481
F5.0
sS'>q'
p482
F0.0
sS'>r'
p483
F3.0
sS'1f'
p484
F1889.0
sS'>t'
p485
F2.0
sS'>u'
p486
F2.0
sS'>v'
p487
F0.0
sS'>w'
p488
F4.0
sS'>h'
p489
F6.0
sS'>i'
p490
F7.0
sS'>j'
p491
F0.0
sS'>k'
p492
F4.0
sS'>l'
p493
F3.0
sS'>m'
p494
F7.0
sS'>n'
p495
F2.0
sS'>o'
p496
F1.0
sS'>`'
p497
F0.0
sS'>a'
p498
F4.0
sS'>b'
p499
F4.0
sS'>c'
p500
F6.0
sS'>d'
p501
F2.0
sS'>e'
p502
F3.0
sS'>f'
p503
F0.0
sS'>g'
p504
F4.0
sS'>['
p505
F0.0
sS'>\\'
p506
F0.0
sS'>]'
p507
F0.0
sS'>^'
p508
F0.0
sS'>_'
p509
F3.0
sS'|t'
p510
F5.0
sS'},'
p511
F0.0
sS'>@'
p512
F1.0
sS'<]'
p513
F0.0
sS'?0'
p514
F32.0
sS'^g'
p515
F14.0
sS'}k'
p516
F3.0
sS'~x'
p517
F46.0
sS'!z'
p518
F26.0
sS',*'
p519
F3.0
sS'~y'
p520
F20.0
sS'!}'
p521
F2.0
sS'@f'
p522
F145.0
sS'~z'
p523
F14.0
sS'@d'
p524
F267.0
sS'!|'
p525
F0.0
sS'@e'
p526
F132.0
sS'~{'
p527
F1.0
sS'd.'
p528
F1368.0
sS'd/'
p529
F98.0
sS'd,'
p530
F245.0
sS'd-'
p531
F764.0
sS'd*'
p532
F312.0
sS'd+'
p533
F95.0
sS'd('
p534
F31.0
sS'd)'
p535
F22.0
sS'd&'
p536
F157.0
sS"d'"
p537
F64.0
sS'd$'
p538
F129.0
sS'd%'
p539
F16.0
sS'd"'
p540
F9.0
sS'd#'
p541
F269.0
sS'd!'
p542
F1041.0
sS'd>'
p543
F8.0
sS'd?'
p544
F118.0
sS'd<'
p545
F52.0
sS'd='
p546
F111.0
sS'd:'
p547
F47.0
sS'd;'
p548
F103.0
sS'd8'
p549
F4640.0
sS'd9'
p550
F4724.0
sS'd6'
p551
F4257.0
sS'd7'
p552
F4629.0
sS'd4'
p553
F6221.0
sS'd5'
p554
F4138.0
sS'd2'
p555
F12774.0
sS'd3'
p556
F6649.0
sS'd0'
p557
F9580.0
sS'd1'
p558
F27081.0
sS'~&'
p559
F0.0
sS'\\z'
p560
F4.0
sS'!~'
p561
F142.0
sS'|p'
p562
F4.0
sS'|~'
p563
F3.0
sS'~}'
p564
F3.0
sS'dn'
p565
F8533.0
sS'do'
p566
F88355.0
sS'dl'
p567
F12776.0
sS'dm'
p568
F11580.0
sS'dj'
p569
F7853.0
sS'dk'
p570
F5419.0
sS'dh'
p571
F9522.0
sS'di'
p572
F79782.0
sS'df'
p573
F6836.0
sS'dg'
p574
F11156.0
sS'dd'
p575
F28531.0
sS'de'
p576
F123597.0
sS'db'
p577
F9538.0
sS'dc'
p578
F9040.0
sS'd`'
p579
F16.0
sS'da'
p580
F128518.0
sS'd~'
p581
F65.0
sS'd|'
p582
F3.0
sS'd}'
p583
F8.0
sS'dz'
p584
F5099.0
sS'd{'
p585
F9.0
sS'dx'
p586
F1883.0
sS'dy'
p587
F44183.0
sS'dv'
p588
F2305.0
sS'dw'
p589
F6581.0
sS'dt'
p590
F6273.0
sS'du'
p591
F23454.0
sS'dr'
p592
F44534.0
sS'ds'
p593
F23229.0
sS'dp'
p594
F4903.0
sS'dq'
p595
F679.0
sS'|f'
p596
F0.0
sS'd@'
p597
F559.0
sS'd^'
p598
F45.0
sS'd_'
p599
F1403.0
sS'd\\'
p600
F40.0
sS'd]'
p601
F120.0
sS'd['
p602
F52.0
sS"w'"
p603
F14.0
sS'w&'
p604
F63.0
sS'w%'
p605
F7.0
sS'w$'
p606
F46.0
sS'w#'
p607
F111.0
sS'w"'
p608
F3.0
sS'w!'
p609
F339.0
sS'w/'
p610
F90.0
sS'w.'
p611
F1265.0
sS'w-'
p612
F305.0
sS'w,'
p613
F224.0
sS'w+'
p614
F30.0
sS'w*'
p615
F127.0
sS'w)'
p616
F14.0
sS'w('
p617
F14.0
sS'w7'
p618
F1851.0
sS'w6'
p619
F1690.0
sS'w5'
p620
F1790.0
sS'w4'
p621
F2468.0
sS'w3'
p622
F3784.0
sS'w2'
p623
F5186.0
sS'w1'
p624
F10442.0
sS'w0'
p625
F4377.0
sS'w?'
p626
F51.0
sS'w>'
p627
F0.0
sS'w='
p628
F58.0
sS'w<'
p629
F13.0
sS'w;'
p630
F26.0
sS'w:'
p631
F14.0
sS'w9'
p632
F1905.0
sS'w8'
p633
F2055.0
sS'02'
p634
F96809.0
sS'03'
p635
F80135.0
sS'00'
p636
F191859.0
sS'01'
p637
F142534.0
sS'06'
p638
F90920.0
sS'07'
p639
F98958.0
sS'04'
p640
F76300.0
sS'05'
p641
F87415.0
sS'0:'
p642
F21.0
sS'0;'
p643
F20.0
sS'08'
p644
F109142.0
sS'09'
p645
F86150.0
sS'0>'
p646
F2.0
sS'0?'
p647
F85.0
sS'0<'
p648
F10.0
sS'0='
p649
F74.0
sS'0"'
p650
F4.0
sS'0#'
p651
F65.0
sS'0!'
p652
F396.0
sS'0&'
p653
F24.0
sS"0'"
p654
F22.0
sS'0$'
p655
F86.0
sS'0%'
p656
F671.0
sS'0*'
p657
F390.0
sS'0+'
p658
F141.0
sS'0('
p659
F16.0
sS'0)'
p660
F48.0
sS'0.'
p661
F886.0
sS'0/'
p662
F386.0
sS'0,'
p663
F72.0
sS'0-'
p664
F559.0
sS'wg'
p665
F3108.0
sS'wf'
p666
F2497.0
sS'we'
p667
F83574.0
sS'wd'
p668
F4277.0
sS'wc'
p669
F3320.0
sS'wb'
p670
F5420.0
sS'wa'
p671
F86845.0
sS'w`'
p672
F11.0
sS'wo'
p673
F40940.0
sS'wn'
p674
F14834.0
sS'wm'
p675
F4498.0
sS'wl'
p676
F5350.0
sS'wk'
p677
F3570.0
sS'wj'
p678
F2628.0
sS'wi'
p679
F69866.0
sS'wh'
p680
F22799.0
sS'ww'
p681
F9125.0
sS'wv'
p682
F1232.0
sS'wu'
p683
F5181.0
sS'wt'
p684
F5100.0
sS'ws'
p685
F9268.0
sS'wr'
p686
F6834.0
sS'wq'
p687
F1277.0
sS'wp'
p688
F2837.0
sS'w~'
p689
F21.0
sS'w}'
p690
F3.0
sS'w|'
p691
F1.0
sS'w{'
p692
F0.0
sS'wz'
p693
F1228.0
sS'wy'
p694
F5685.0
sS'wx'
p695
F1127.0
sS'0r'
p696
F3204.0
sS'0s'
p697
F2652.0
sS'0p'
p698
F3385.0
sS'0q'
p699
F189.0
sS'0v'
p700
F1317.0
sS'0w'
p701
F1344.0
sS'0t'
p702
F2294.0
sS'w@'
p703
F292.0
sS'0z'
p704
F537.0
sS'0{'
p705
F1.0
sS'0x'
p706
F1053.0
sS'0y'
p707
F963.0
sS'0~'
p708
F26.0
sS'0|'
p709
F2.0
sS'0}'
p710
F7.0
sS'0b'
p711
F1996.0
sS'0c'
p712
F2373.0
sS'0`'
p713
F23.0
sS'0a'
p714
F1751.0
sS'0f'
p715
F1098.0
sS'0g'
p716
F1204.0
sS'0d'
p717
F1844.0
sS'0e'
p718
F991.0
sS'w_'
p719
F498.0
sS'w^'
p720
F5.0
sS'w]'
p721
F20.0
sS'w\\'
p722
F13.0
sS'w['
p723
F17.0
sS'0o'
p724
F1284.0
sS'0l'
p725
F2413.0
sS'0m'
p726
F2613.0
sS'|]'
p727
F0.0
sS'*}'
p728
F10.0
sS'~t'
p729
F106.0
sS'|['
p730
F2.0
sS':g'
p731
F5.0
sS'0k'
p732
F1469.0
sS'~`'
p733
F5.0
sS'~u'
p734
F6.0
sS'*{'
p735
F1.0
sS'-x'
p736
F1147.0
sS'^$'
p737
F4.0
sS'=v'
p738
F35.0
sS'@"'
p739
F1.0
sS'|@'
p740
F12.0
sS'~v'
p741
F29.0
sS'*q'
p742
F17.0
sS'@!'
p743
F174.0
sS'~w'
p744
F32.0
sS'\\a'
p745
F6.0
sS'*n'
p746
F163.0
sS'{j'
p747
F13.0
sS'*o'
p748
F72.0
sS'^k'
p749
F5.0
sS'=p'
p750
F130.0
sS'iy'
p751
F14820.0
sS'ix'
p752
F16608.0
sS'i{'
p753
F2.0
sS'iz'
p754
F31957.0
sS'i}'
p755
F10.0
sS'i|'
p756
F4.0
sS'"b'
p757
F9.0
sS'i~'
p758
F60.0
sS'iq'
p759
F6774.0
sS'ip'
p760
F45441.0
sS'is'
p761
F164072.0
sS'ir'
p762
F97791.0
sS'iu'
p763
F12773.0
sS'it'
p764
F166144.0
sS'iw'
p765
F6557.0
sS'iv'
p766
F34548.0
sS'ii'
p767
F17238.0
sS'ih'
p768
F9705.0
sS'ik'
p769
F60724.0
sS'ij'
p770
F11731.0
sS'im'
p771
F89861.0
sS'il'
p772
F185813.0
sS'io'
p773
F68694.0
sS'in'
p774
F350962.0
sS'ia'
p775
F132386.0
sS'i`'
p776
F22.0
sS'ic'
p777
F143126.0
sS'ib'
p778
F24411.0
sS'ie'
p779
F178768.0
sS'id'
p780
F65827.0
sS'ig'
p781
F63966.0
sS'if'
p782
F32380.0
sS'~i'
p783
F96.0
sS'i['
p784
F42.0
sS'i]'
p785
F47.0
sS'i\\'
p786
F72.0
sS'i_'
p787
F2265.0
sS'i^'
p788
F49.0
sS'"\\'
p789
F0.0
sS'i@'
p790
F608.0
sS'"^'
p791
F2.0
sS'"_'
p792
F1.0
sS'~j'
p793
F101.0
sS'"['
p794
F0.0
sS'i9'
p795
F6246.0
sS'i8'
p796
F5700.0
sS'i;'
p797
F120.0
sS'i:'
p798
F27.0
sS'i='
p799
F114.0
sS'i<'
p800
F288.0
sS'i?'
p801
F83.0
sS'i>'
p802
F11.0
sS'i1'
p803
F30518.0
sS'i0'
p804
F10915.0
sS'i3'
p805
F6049.0
sS'i2'
p806
F14563.0
sS'i5'
p807
F4226.0
sS'i4'
p808
F4938.0
sS'i7'
p809
F4370.0
sS'i6'
p810
F3715.0
sS'i)'
p811
F44.0
sS'i('
p812
F86.0
sS'i+'
p813
F124.0
sS'i*'
p814
F417.0
sS'i-'
p815
F1366.0
sS'i,'
p816
F250.0
sS'i/'
p817
F115.0
sS'i.'
p818
F1689.0
sS'i!'
p819
F706.0
sS'"='
p820
F5.0
sS'i#'
p821
F242.0
sS'i"'
p822
F6.0
sS'i%'
p823
F16.0
sS'i$'
p824
F145.0
sS"i'"
p825
F100.0
sS'i&'
p826
F208.0
sS'^?'
p827
F2.0
sS"'["
p828
F22.0
sS'~l'
p829
F175.0
sS'^2'
p830
F17.0
sS'5]'
p831
F19.0
sS'5\\'
p832
F19.0
sS'5_'
p833
F293.0
sS'5^'
p834
F18.0
sS'|r'
p835
F6.0
sS'.2'
p836
F1450.0
sS'5['
p837
F2.0
sS'|q'
p838
F0.0
sS'-0'
p839
F1501.0
sS'||'
p840
F44.0
sS'|!'
p841
F3.0
sS'|z'
p842
F3.0
sS'|{'
p843
F0.0
sS'|x'
p844
F4.0
sS'^5'
p845
F3.0
sS'%>'
p846
F1.0
sS'|g'
p847
F1.0
sS'|d'
p848
F5.0
sS'-.'
p849
F73.0
sS'|b'
p850
F5.0
sS'|c'
p851
F7.0
sS'|`'
p852
F0.0
sS'|a'
p853
F10.0
sS'|n'
p854
F3.0
sS'|o'
p855
F2.0
sS'|l'
p856
F7.0
sS'|m'
p857
F7.0
sS'|j'
p858
F4.0
sS'5@'
p859
F540.0
sS'|h'
p860
F3.0
sS'|i'
p861
F2.0
sS'5}'
p862
F11.0
sS'5|'
p863
F2.0
sS'5~'
p864
F33.0
sS'5y'
p865
F611.0
sS'5x'
p866
F551.0
sS'5{'
p867
F3.0
sS'5z'
p868
F374.0
sS'5u'
p869
F376.0
sS'5t'
p870
F1743.0
sS'5w'
p871
F632.0
sS'5v'
p872
F398.0
sS'5q'
p873
F250.0
sS'5p'
p874
F953.0
sS'5s'
p875
F1595.0
sS'5r'
p876
F1191.0
sS'5m'
p877
F1503.0
sS'5l'
p878
F989.0
sS'5o'
p879
F597.0
sS'5n'
p880
F864.0
sS'5i'
p881
F628.0
sS'5h'
p882
F939.0
sS'5k'
p883
F901.0
sS'5j'
p884
F1126.0
sS'5e'
p885
F1018.0
sS'5d'
p886
F1213.0
sS'5g'
p887
F910.0
sS'5f'
p888
F772.0
sS'5a'
p889
F1936.0
sS'5`'
p890
F14.0
sS'5c'
p891
F1311.0
sS'5b'
p892
F1377.0
sS'|6'
p893
F3.0
sS'|7'
p894
F2.0
sS'|4'
p895
F1.0
sS'{^'
p896
F0.0
sS'|2'
p897
F6.0
sS'|3'
p898
F7.0
sS'|0'
p899
F3.0
sS'|1'
p900
F23.0
sS'|>'
p901
F0.0
sS'|?'
p902
F0.0
sS'|<'
p903
F4.0
sS'^/'
p904
F0.0
sS'|:'
p905
F0.0
sS'|;'
p906
F0.0
sS'|8'
p907
F3.0
sS'-('
p908
F2.0
sS'|&'
p909
F0.0
sS"|'"
p910
F0.0
sS'|$'
p911
F0.0
sS'|%'
p912
F0.0
sS'|"'
p913
F0.0
sS'|#'
p914
F0.0
sS'^!'
p915
F16.0
sS'|.'
p916
F3.0
sS'|/'
p917
F3.0
sS'|,'
p918
F0.0
sS'|-'
p919
F3.0
sS'|*'
p920
F3.0
sS'|+'
p921
F6.0
sS'|('
p922
F0.0
sS'|)'
p923
F5.0
sS'5='
p924
F61.0
sS'5<'
p925
F6.0
sS'5?'
p926
F88.0
sS'5>'
p927
F2.0
sS'59'
p928
F33309.0
sS'58'
p929
F35178.0
sS'5;'
p930
F18.0
sS'5:'
p931
F24.0
sS'55'
p932
F50452.0
sS'54'
p933
F38891.0
sS'57'
p934
F31022.0
sS'56'
p935
F53298.0
sS'51'
p936
F56702.0
sS'50'
p937
F55094.0
sS'53'
p938
F42343.0
sS'52'
p939
F59381.0
sS'5-'
p940
F379.0
sS'5,'
p941
F53.0
sS'5/'
p942
F381.0
sS'5.'
p943
F650.0
sS'5)'
p944
F41.0
sS'5('
p945
F15.0
sS'5+'
p946
F171.0
sS'5*'
p947
F475.0
sS'5%'
p948
F88.0
sS'5$'
p949
F87.0
sS"5'"
p950
F13.0
sS'5&'
p951
F26.0
sS'5!'
p952
F454.0
sS'5#'
p953
F77.0
sS'5"'
p954
F4.0
sS'~a'
p955
F139.0
sS'*?'
p956
F15.0
sS'^\\'
p957
F0.0
sS';<'
p958
F0.0
sS'.3'
p959
F631.0
sS'+-'
p960
F164.0
sS'^]'
p961
F12.0
sS'^^'
p962
F151.0
sS'^m'
p963
F15.0
sS'-5'
p964
F345.0
sS'^_'
p965
F27.0
sS'~b'
p966
F185.0
sS'*5'
p967
F144.0
sS'[j'
p968
F8.0
sS'~['
p969
F3.0
sS'-4'
p970
F474.0
sS'~,'
p971
F1.0
sS'*2'
p972
F500.0
sS'+:'
p973
F1.0
sS'*3'
p974
F184.0
sS'-7'
p975
F431.0
sS'9@'
p976
F491.0
sS'*)'
p977
F60.0
sS'-6'
p978
F374.0
sS'[['
p979
F46.0
sS'[_'
p980
F1.0
sS'[^'
p981
F13.0
sS'[]'
p982
F183.0
sS'[\\'
p983
F7.0
sS'^@'
p984
F6.0
sS'[@'
p985
F2.0
sS'#`'
p986
F4.0
sS'[s'
p987
F27.0
sS'-1'
p988
F3201.0
sS'[q'
p989
F6.0
sS"*'"
p990
F1.0
sS'[w'
p991
F11.0
sS'[v'
p992
F80.0
sS'[u'
p993
F32.0
sS'[t'
p994
F15.0
sS'[{'
p995
F1.0
sS'[z'
p996
F2.0
sS'[y'
p997
F19.0
sS'[x'
p998
F19.0
sS'9['
p999
F13.0
sS'[}'
p1000
F2.0
sS'[|'
p1001
F0.0
sS';#'
p1002
F2.0
sS'[b'
p1003
F35.0
sS'[a'
p1004
F53.0
sS'[`'
p1005
F0.0
sS'[g'
p1006
F29.0
sS'[f'
p1007
F16.0
sS'[e'
p1008
F34.0
sS"'@"
p1009
F3.0
sS'[k'
p1010
F42.0
sS'9]'
p1011
F36.0
sS'[i'
p1012
F63.0
sS'[h'
p1013
F76.0
sS'[o'
p1014
F47.0
sS'[n'
p1015
F15.0
sS'[m'
p1016
F42.0
sS'9\\'
p1017
F20.0
sS'%b'
p1018
F33.0
sS'};'
p1019
F1.0
sS'9_'
p1020
F228.0
sS'#n'
p1021
F30.0
sS'^y'
p1022
F14.0
sS'9^'
p1023
F21.0
sS'^{'
p1024
F0.0
sS'[3'
p1025
F6.0
sS'[2'
p1026
F13.0
sS'[1'
p1027
F58.0
sS'[0'
p1028
F19.0
sS'[7'
p1029
F11.0
sS'[6'
p1030
F52.0
sS'[5'
p1031
F11.0
sS'[4'
p1032
F14.0
sS'[;'
p1033
F31.0
sS'[:'
p1034
F1.0
sS'[9'
p1035
F8.0
sS'[8'
p1036
F20.0
sS'[?'
p1037
F0.0
sS'[>'
p1038
F0.0
sS'[='
p1039
F13.0
sS'[<'
p1040
F1.0
sS'[#'
p1041
F3.0
sS'["'
p1042
F0.0
sS'[!'
p1043
F0.0
sS"['"
p1044
F8.0
sS'[&'
p1045
F1.0
sS'[%'
p1046
F0.0
sS'[$'
p1047
F1.0
sS'>;'
p1048
F0.0
sS'[*'
p1049
F2.0
sS'[)'
p1050
F2.0
sS'[('
p1051
F1.0
sS'[/'
p1052
F1.0
sS'[.'
p1053
F1.0
sS'[-'
p1054
F8.0
sS'[,'
p1055
F17.0
sS"'7"
p1056
F14.0
sS"'6"
p1057
F9.0
sS"'5"
p1058
F13.0
sS"'4"
p1059
F12.0
sS"'3"
p1060
F10.0
sS"'2"
p1061
F34.0
sS"'1"
p1062
F64.0
sS"'0"
p1063
F68.0
sS'n@'
p1064
F1319.0
sS"'>"
p1065
F0.0
sS"'="
p1066
F6.0
sS"'<"
p1067
F1.0
sS"';"
p1068
F35.0
sS"':"
p1069
F1.0
sS"'9"
p1070
F45.0
sS"'8"
p1071
F72.0
sS"''"
p1072
F50.0
sS"'&"
p1073
F0.0
sS"'%"
p1074
F0.0
sS'n['
p1075
F21.0
sS'n\\'
p1076
F127.0
sS'n]'
p1077
F24.0
sS'n^'
p1078
F31.0
sS'n_'
p1079
F3581.0
sS'#$'
p1080
F258.0
sS"'."
p1081
F24.0
sS"'-"
p1082
F12.0
sS"',"
p1083
F34.0
sS"'+"
p1084
F1.0
sS"'*"
p1085
F1.0
sS"')"
p1086
F2.0
sS'9,'
p1087
F61.0
sS'nh'
p1088
F19192.0
sS'ni'
p1089
F150937.0
sS'nj'
p1090
F17144.0
sS'nk'
p1091
F71556.0
sS'nl'
p1092
F18340.0
sS'nm'
p1093
F16478.0
sS'nn'
p1094
F88630.0
sS'no'
p1095
F85737.0
sS'n`'
p1096
F56.0
sS'na'
p1097
F198022.0
sS'nb'
p1098
F16165.0
sS'nc'
p1099
F60660.0
sS'nd'
p1100
F134302.0
sS'ne'
p1101
F181228.0
sS'nf'
p1102
F9087.0
sS'ng'
p1103
F154168.0
sS'nx'
p1104
F5187.0
sS'ny'
p1105
F58209.0
sS'nz'
p1106
F16040.0
sS'n{'
p1107
F6.0
sS'n|'
p1108
F11.0
sS'n}'
p1109
F23.0
sS'n~'
p1110
F145.0
sS'np'
p1111
F10593.0
sS'nq'
p1112
F2140.0
sS'nr'
p1113
F14628.0
sS'ns'
p1114
F54780.0
sS'nt'
p1115
F94252.0
sS'nu'
p1116
F47252.0
sS'nv'
p1117
F5467.0
sS'nw'
p1118
F6664.0
sS"'w"
p1119
F27.0
sS"'v"
p1120
F52.0
sS"'u"
p1121
F15.0
sS"'t"
p1122
F101.0
sS"'s"
p1123
F913.0
sS"'r"
p1124
F90.0
sS"'q"
p1125
F18.0
sS"'p"
p1126
F38.0
sS"'~"
p1127
F2.0
sS"'}"
p1128
F0.0
sS"'|"
p1129
F0.0
sS"'{"
p1130
F0.0
sS"'z"
p1131
F53.0
sS"'y"
p1132
F11.0
sS"'x"
p1133
F39.0
sS"'g"
p1134
F97.0
sS"'f"
p1135
F42.0
sS"'e"
p1136
F57.0
sS"'d"
p1137
F125.0
sS"'c"
p1138
F80.0
sS"'b"
p1139
F36.0
sS"'a"
p1140
F145.0
sS"'`"
p1141
F1.0
sS"'o"
p1142
F77.0
sS"'n"
p1143
F102.0
sS"'m"
p1144
F133.0
sS"'l"
p1145
F154.0
sS"'k"
p1146
F86.0
sS"'j"
p1147
F31.0
sS"'i"
p1148
F54.0
sS"'h"
p1149
F20.0
sS'n('
p1150
F83.0
sS'n)'
p1151
F59.0
sS'n*'
p1152
F797.0
sS'n+'
p1153
F205.0
sS'n,'
p1154
F281.0
sS'n-'
p1155
F1756.0
sS'n.'
p1156
F2750.0
sS'n/'
p1157
F188.0
sS"'_"
p1158
F1.0
sS'n!'
p1159
F2062.0
sS'n"'
p1160
F12.0
sS'n#'
p1161
F709.0
sS'n$'
p1162
F225.0
sS'n%'
p1163
F27.0
sS'n&'
p1164
F419.0
sS"n'"
p1165
F174.0
sS'n8'
p1166
F10866.0
sS'n9'
p1167
F11335.0
sS'n:'
p1168
F61.0
sS'n;'
p1169
F43.0
sS'n<'
p1170
F118.0
sS'n='
p1171
F238.0
sS'n>'
p1172
F11.0
sS'n?'
p1173
F205.0
sS'n0'
p1174
F24555.0
sS'n1'
p1175
F66179.0
sS'n2'
p1176
F32446.0
sS'n3'
p1177
F13542.0
sS'n4'
p1178
F11408.0
sS'n5'
p1179
F8595.0
sS'n6'
p1180
F8849.0
sS'n7'
p1181
F10070.0
sS':,'
p1182
F1.0
sS':-'
p1183
F27.0
sS':.'
p1184
F6.0
sS':/'
p1185
F16.0
sS':('
p1186
F31.0
sS':)'
p1187
F349.0
sS':*'
p1188
F38.0
sS':+'
p1189
F0.0
sS':$'
p1190
F5.0
sS':%'
p1191
F0.0
sS':&'
p1192
F0.0
sS":'"
p1193
F1.0
sS':!'
p1194
F7.0
sS':"'
p1195
F0.0
sS':#'
p1196
F4.0
sS':<'
p1197
F0.0
sS'91'
p1198
F73568.0
sS':>'
p1199
F5.0
sS':?'
p1200
F9.0
sS':8'
p1201
F13.0
sS':9'
p1202
F15.0
sS'::'
p1203
F39.0
sS'90'
p1204
F68044.0
sS':4'
p1205
F17.0
sS':5'
p1206
F17.0
sS':6'
p1207
F21.0
sS':7'
p1208
F10.0
sS':0'
p1209
F31.0
sS'93'
p1210
F47029.0
sS':2'
p1211
F59.0
sS':3'
p1212
F20.0
sS'92'
p1213
F64030.0
sS']v'
p1214
F116.0
sS'-)'
p1215
F25.0
sS'=r'
p1216
F51.0
sS'-8'
p1217
F506.0
sS'97'
p1218
F56827.0
sS':l'
p1219
F7.0
sS':m'
p1220
F20.0
sS':n'
p1221
F22.0
sS':o'
p1222
F16.0
sS':h'
p1223
F7.0
sS':i'
p1224
F5.0
sS':j'
p1225
F21.0
sS':k'
p1226
F14.0
sS':d'
p1227
F95.0
sS':e'
p1228
F6.0
sS':f'
p1229
F7.0
sS'.c'
p1230
F10956.0
sS':`'
p1231
F0.0
sS':a'
p1232
F12.0
sS':b'
p1233
F10.0
sS':c'
p1234
F12.0
sS':|'
p1235
F0.0
sS':}'
p1236
F5.0
sS':~'
p1237
F0.0
sS'+g'
p1238
F58.0
sS':x'
p1239
F32.0
sS':y'
p1240
F7.0
sS':z'
p1241
F3.0
sS':{'
p1242
F1.0
sS':t'
p1243
F15.0
sS':u'
p1244
F10.0
sS':v'
p1245
F2.0
sS':w'
p1246
F3.0
sS':p'
p1247
F109.0
sS':q'
p1248
F1.0
sS':r'
p1249
F8.0
sS':s'
p1250
F6.0
sS'=d'
p1251
F71.0
sS'>3'
p1252
F8.0
sS'.d'
p1253
F950.0
sS'-:'
p1254
F0.0
sS':@'
p1255
F23.0
sS':\\'
p1256
F0.0
sS'+f'
p1257
F40.0
sS':^'
p1258
F1.0
sS':_'
p1259
F10.0
sS':['
p1260
F2.0
sS'{@'
p1261
F9.0
sS'}1'
p1262
F19.0
sS'"q'
p1263
F1.0
sS'.e'
p1264
F802.0
sS'=b'
p1265
F155.0
sS'8%'
p1266
F8.0
sS'.f'
p1267
F674.0
sS'=h'
p1268
F68.0
sS'.g'
p1269
F657.0
sS'#:'
p1270
F0.0
sS'=]'
p1271
F109.0
sS'=\\'
p1272
F10.0
sS',3'
p1273
F148.0
sS'=_'
p1274
F1.0
sS'.y'
p1275
F313.0
sS'`"'
p1276
F0.0
sS'`#'
p1277
F0.0
sS'=^'
p1278
F5.0
sS'`&'
p1279
F0.0
sS"`'"
p1280
F0.0
sS'`$'
p1281
F0.0
sS'`%'
p1282
F1.0
sS'=~'
p1283
F0.0
sS'`+'
p1284
F4.0
sS'`('
p1285
F0.0
sS'`)'
p1286
F0.0
sS'`.'
p1287
F0.0
sS'`/'
p1288
F1.0
sS'`,'
p1289
F0.0
sS'`-'
p1290
F1.0
sS'`2'
p1291
F25.0
sS'`3'
p1292
F14.0
sS'`0'
p1293
F9.0
sS'`1'
p1294
F179.0
sS'`6'
p1295
F4.0
sS'=['
p1296
F10.0
sS'`4'
p1297
F10.0
sS'`5'
p1298
F11.0
sS'`:'
p1299
F2.0
sS'`;'
p1300
F2.0
sS'`8'
p1301
F7.0
sS'`9'
p1302
F9.0
sS'>)'
p1303
F0.0
sS'`?'
p1304
F0.0
sS'`<'
p1305
F0.0
sS'`='
p1306
F1.0
sS'+h'
p1307
F56.0
sS'=@'
p1308
F4.0
sS'`b'
p1309
F9.0
sS'`c'
p1310
F3.0
sS'``'
p1311
F92.0
sS'`a'
p1312
F9.0
sS'`f'
p1313
F2.0
sS'`g'
p1314
F2.0
sS'`d'
p1315
F11.0
sS'`e'
p1316
F7.0
sS'`j'
p1317
F1.0
sS'`k'
p1318
F2.0
sS'`h'
p1319
F7.0
sS'1{'
p1320
F2.0
sS'`n'
p1321
F5.0
sS'`o'
p1322
F8.0
sS'`l'
p1323
F7.0
sS'`m'
p1324
F9.0
sS'`r'
p1325
F7.0
sS'`s'
p1326
F21.0
sS'`p'
p1327
F11.0
sS'`q'
p1328
F9.0
sS'`v'
p1329
F2.0
sS'^['
p1330
F3.0
sS'`t'
p1331
F7.0
sS'`u'
p1332
F1.0
sS'`z'
p1333
F6.0
sS'`{'
p1334
F0.0
sS'`x'
p1335
F1.0
sS'`y'
p1336
F3.0
sS'`~'
p1337
F2.0
sS'`|'
p1338
F0.0
sS'`}'
p1339
F0.0
sS'`@'
p1340
F0.0
sS'%+'
p1341
F2.0
sS'`['
p1342
F0.0
sS'`^'
p1343
F0.0
sS'`_'
p1344
F0.0
sS'`\\'
p1345
F0.0
sS'`]'
p1346
F0.0
sS'?~'
p1347
F5.0
sS'?}'
p1348
F0.0
sS'?|'
p1349
F0.0
sS'?{'
p1350
F0.0
sS'?z'
p1351
F5.0
sS'?y'
p1352
F10.0
sS'?x'
p1353
F13.0
sS'?w'
p1354
F11.0
sS'?v'
p1355
F4.0
sS'?u'
p1356
F4.0
sS'?t'
p1357
F17.0
sS'->'
p1358
F5.0
sS'?r'
p1359
F14.0
sS'?q'
p1360
F2.0
sS'?p'
p1361
F10.0
sS'?o'
p1362
F16.0
sS'?n'
p1363
F5.0
sS'?m'
p1364
F18.0
sS'?l'
p1365
F22.0
sS'?k'
p1366
F10.0
sS'.~'
p1367
F6.0
sS'?i'
p1368
F15.0
sS'?h'
p1369
F8.0
sS'?g'
p1370
F9.0
sS'?f'
p1371
F5.0
sS'?e'
p1372
F14.0
sS'?d'
p1373
F13.0
sS'?c'
p1374
F16.0
sS'?b'
p1375
F11.0
sS'?a'
p1376
F22.0
sS'?`'
p1377
F0.0
sS's;'
p1378
F168.0
sS's:'
p1379
F74.0
sS's9'
p1380
F14879.0
sS's8'
p1381
F11712.0
sS's?'
p1382
F302.0
sS's>'
p1383
F12.0
sS's='
p1384
F280.0
sS's<'
p1385
F104.0
sS's3'
p1386
F14989.0
sS's2'
p1387
F33324.0
sS's1'
p1388
F69389.0
sS's0'
p1389
F24268.0
sS's7'
p1390
F10404.0
sS's6'
p1391
F9065.0
sS's5'
p1392
F9168.0
sS's4'
p1393
F13603.0
sS's+'
p1394
F235.0
sS's*'
p1395
F970.0
sS's)'
p1396
F66.0
sS's('
p1397
F85.0
sS's/'
p1398
F220.0
sS's.'
p1399
F4627.0
sS's-'
p1400
F1577.0
sS's,'
p1401
F524.0
sS's#'
p1402
F1499.0
sS's"'
p1403
F12.0
sS's!'
p1404
F2944.0
sS',='
p1405
F27.0
sS"s'"
p1406
F79.0
sS's&'
p1407
F405.0
sS's%'
p1408
F33.0
sS's$'
p1409
F232.0
sS's['
p1410
F41.0
sS'?>'
p1411
F22.0
sS'?='
p1412
F8.0
sS'?<'
p1413
F0.0
sS's_'
p1414
F3271.0
sS's^'
p1415
F25.0
sS's]'
p1416
F139.0
sS's\\'
p1417
F67.0
sS'?7'
p1418
F27.0
sS'=9'
p1419
F95.0
sS'?5'
p1420
F12.0
sS'?4'
p1421
F33.0
sS'?3'
p1422
F21.0
sS'?2'
p1423
F47.0
sS'?1'
p1424
F176.0
sS'=8'
p1425
F49.0
sS'?/'
p1426
F8.0
sS'.p'
p1427
F1292.0
sS',k'
p1428
F437.0
sS'?,'
p1429
F3.0
sS'?+'
p1430
F6.0
sS'=;'
p1431
F4.0
sS'?)'
p1432
F0.0
sS'?('
p1433
F2.0
sS',^'
p1434
F46.0
sS'+r'
p1435
F86.0
sS',\\'
p1436
F3.0
sS's@'
p1437
F1377.0
sS'?#'
p1438
F3.0
sS',['
p1439
F27.0
sS'?!'
p1440
F128.0
sS's{'
p1441
F1.0
sS'sz'
p1442
F5421.0
sS'sy'
p1443
F34995.0
sS'sx'
p1444
F8123.0
sS',b'
p1445
F174.0
sS's~'
p1446
F164.0
sS's}'
p1447
F30.0
sS's|'
p1448
F9.0
sS'ss'
p1449
F109501.0
sS'sr'
p1450
F16197.0
sS'sq'
p1451
F6163.0
sS'sp'
p1452
F56043.0
sS'sw'
p1453
F36352.0
sS'sv'
p1454
F5587.0
sS'su'
p1455
F94185.0
sS'st'
p1456
F196756.0
sS'sk'
p1457
F48643.0
sS'sj'
p1458
F9534.0
sS'si'
p1459
F128843.0
sS'sh'
p1460
F210551.0
sS'so'
p1461
F122046.0
sS'sn'
p1462
F27453.0
sS'sm'
p1463
F54036.0
sS'sl'
p1464
F36211.0
sS'sc'
p1465
F60819.0
sS'sb'
p1466
F16368.0
sS'sa'
p1467
F235757.0
sS's`'
p1468
F55.0
sS'sg'
p1469
F11760.0
sS'sf'
p1470
F8923.0
sS'se'
p1471
F181149.0
sS'sd'
p1472
F16006.0
sS'.r'
p1473
F961.0
sS'+p'
p1474
F90.0
sS'~9'
p1475
F29.0
sS'-9'
p1476
F844.0
sS',1'
p1477
F434.0
sS'.s'
p1478
F1576.0
sS'+w'
p1479
F22.0
sS'~$'
p1480
F18.0
sS'+~'
p1481
F11.0
sS'+v'
p1482
F30.0
sS'|s'
p1483
F6.0
sS'~s'
p1484
F246.0
sS'|w'
p1485
F1.0
sS'em'
p1486
F85025.0
sS'el'
p1487
F232878.0
sS'eo'
p1488
F29867.0
sS'en'
p1489
F235937.0
sS'ei'
p1490
F46001.0
sS'eh'
p1491
F18445.0
sS'ek'
p1492
F36253.0
sS'ej'
p1493
F20878.0
sS'ee'
p1494
F142054.0
sS'ed'
p1495
F95330.0
sS'eg'
p1496
F39652.0
sS'ef'
p1497
F25322.0
sS'ea'
p1498
F149931.0
sS'e`'
p1499
F86.0
sS'ec'
p1500
F58088.0
sS'eb'
p1501
F57504.0
sS'e}'
p1502
F61.0
sS'e|'
p1503
F9.0
sS'e~'
p1504
F280.0
sS'ey'
p1505
F88217.0
sS'ex'
p1506
F64460.0
sS'e{'
p1507
F6.0
sS'ez'
p1508
F28602.0
sS'eu'
p1509
F14301.0
sS'et'
p1510
F129096.0
sS'ew'
p1511
F28123.0
sS'ev'
p1512
F56481.0
sS'eq'
p1513
F6986.0
sS'ep'
p1514
F49556.0
sS'es'
p1515
F205024.0
sS'er'
p1516
F430303.0
sS'e@'
p1517
F1534.0
sS'e]'
p1518
F50.0
sS'e\\'
p1519
F141.0
sS'e_'
p1520
F6136.0
sS'e^'
p1521
F49.0
sS'~:'
p1522
F2.0
sS'e['
p1523
F51.0
sS',>'
p1524
F1.0
sS'e-'
p1525
F3204.0
sS'e,'
p1526
F378.0
sS'e/'
p1527
F319.0
sS'e.'
p1528
F4645.0
sS'e)'
p1529
F127.0
sS'e('
p1530
F124.0
sS'e+'
p1531
F287.0
sS'e*'
p1532
F1544.0
sS'e%'
p1533
F50.0
sS'e$'
p1534
F475.0
sS"e'"
p1535
F261.0
sS'e&'
p1536
F642.0
sS'e!'
p1537
F4163.0
sS'.*'
p1538
F56.0
sS'e#'
p1539
F1164.0
sS'e"'
p1540
F20.0
sS'e='
p1541
F376.0
sS'e<'
p1542
F248.0
sS'e?'
p1543
F520.0
sS'e>'
p1544
F22.0
sS'e9'
p1545
F16610.0
sS'e8'
p1546
F16130.0
sS'e;'
p1547
F179.0
sS'e:'
p1548
F130.0
sS'e5'
p1549
F12813.0
sS'e4'
p1550
F19006.0
sS'e7'
p1551
F15041.0
sS'e6'
p1552
F13244.0
sS'e1'
p1553
F97726.0
sS'e0'
p1554
F32797.0
sS'e3'
p1555
F20266.0
sS'e2'
p1556
F48448.0
sS'..'
p1557
F6052.0
sS'~q'
p1558
F14.0
sS'./'
p1559
F237.0
sS'^;'
p1560
F1.0
sS'.!'
p1561
F70.0
sS'.q'
p1562
F137.0
sS'."'
p1563
F2.0
sS',i'
p1564
F200.0
sS'xj'
p1565
F1653.0
sS'xk'
p1566
F1858.0
sS'xh'
p1567
F2394.0
sS'xi'
p1568
F24325.0
sS'xn'
p1569
F1932.0
sS'xo'
p1570
F10361.0
sS'xl'
p1571
F3186.0
sS'xm'
p1572
F4168.0
sS'xb'
p1573
F3226.0
sS'xc'
p1574
F9652.0
sS'x`'
p1575
F4.0
sS'xa'
p1576
F15012.0
sS'xf'
p1577
F1863.0
sS'xg'
p1578
F1489.0
sS'xd'
p1579
F2853.0
sS'xe'
p1580
F7854.0
sS'xz'
p1581
F2308.0
sS'x{'
p1582
F6.0
sS'xx'
p1583
F26614.0
sS'xy'
p1584
F36320.0
sS'x~'
p1585
F53.0
sS'.&'
p1586
F3.0
sS'x|'
p1587
F5.0
sS'x}'
p1588
F6.0
sS'xr'
p1589
F2573.0
sS'xs'
p1590
F5595.0
sS'xp'
p1591
F3297.0
sS'xq'
p1592
F860.0
sS'xv'
p1593
F1019.0
sS'xw'
p1594
F1321.0
sS'xt'
p1595
F6770.0
sS'xu'
p1596
F3347.0
sS'1q'
p1597
F946.0
sS'1p'
p1598
F2760.0
sS'1s'
p1599
F5633.0
sS'1r'
p1600
F3005.0
sS'1u'
p1601
F696.0
sS'1t'
p1602
F3773.0
sS'1w'
p1603
F1365.0
sS'1v'
p1604
F894.0
sS'1y'
p1605
F878.0
sS'1x'
p1606
F988.0
sS'x@'
p1607
F257.0
sS'1z'
p1608
F814.0
sS'1}'
p1609
F9.0
sS'1|'
p1610
F2.0
sS'1~'
p1611
F71.0
sS'1a'
p1612
F4954.0
sS'x['
p1613
F20.0
sS'1c'
p1614
F4256.0
sS'1b'
p1615
F3809.0
sS'x^'
p1616
F17.0
sS'x_'
p1617
F818.0
sS'x\\'
p1618
F16.0
sS'x]'
p1619
F101.0
sS'1i'
p1620
F1383.0
sS'1h'
p1621
F1838.0
sS'1k'
p1622
F1994.0
sS'1j'
p1623
F2020.0
sS'1m'
p1624
F4282.0
sS'1l'
p1625
F4693.0
sS'1o'
p1626
F1768.0
sS'1n'
p1627
F4774.0
sS'x*'
p1628
F150.0
sS'x+'
p1629
F39.0
sS'x('
p1630
F27.0
sS'x)'
p1631
F11.0
sS'x.'
p1632
F900.0
sS'x/'
p1633
F61.0
sS'x,'
p1634
F43.0
sS'x-'
p1635
F1492.0
sS'x"'
p1636
F1.0
sS'x#'
p1637
F118.0
sS'x!'
p1638
F467.0
sS'x&'
p1639
F63.0
sS"x'"
p1640
F9.0
sS'x$'
p1641
F29.0
sS'x%'
p1642
F10.0
sS'x:'
p1643
F23.0
sS'x;'
p1644
F24.0
sS'x8'
p1645
F1585.0
sS'x9'
p1646
F1810.0
sS'x>'
p1647
F3.0
sS'x?'
p1648
F36.0
sS'x<'
p1649
F26.0
sS'x='
p1650
F44.0
sS'x2'
p1651
F5019.0
sS'x3'
p1652
F3306.0
sS'x0'
p1653
F3402.0
sS'x1'
p1654
F11028.0
sS'x6'
p1655
F1874.0
sS'x7'
p1656
F1998.0
sS'x4'
p1657
F2234.0
sS'x5'
p1658
F1623.0
sS'11'
p1659
F164230.0
sS'10'
p1660
F170343.0
sS'13'
p1661
F107121.0
sS'12'
p1662
F271332.0
sS'15'
p1663
F83987.0
sS'14'
p1664
F98213.0
sS'17'
p1665
F70128.0
sS'16'
p1666
F73368.0
sS'19'
p1667
F217127.0
sS'18'
p1668
F78860.0
sS'1;'
p1669
F24.0
sS'1:'
p1670
F62.0
sS'1='
p1671
F110.0
sS'1<'
p1672
F22.0
sS'1?'
p1673
F157.0
sS'1>'
p1674
F5.0
sS'1!'
p1675
F1494.0
sS'1#'
p1676
F165.0
sS'1"'
p1677
F12.0
sS'1%'
p1678
F42.0
sS'1$'
p1679
F161.0
sS"1'"
p1680
F20.0
sS'1&'
p1681
F65.0
sS'1)'
p1682
F88.0
sS'1('
p1683
F22.0
sS'1+'
p1684
F183.0
sS'1*'
p1685
F691.0
sS'1-'
p1686
F673.0
sS'1,'
p1687
F134.0
sS'1/'
p1688
F648.0
sS'1.'
p1689
F1565.0
sS'#='
p1690
F4.0
sS'#<'
p1691
F0.0
sS'#3'
p1692
F489.0
sS'#2'
p1693
F839.0
sS',+'
p1694
F3.0
sS'~<'
p1695
F4.0
sS'#1'
p1696
F6974.0
sS'|u'
p1697
F0.0
sS'#0'
p1698
F204.0
sS'+}'
p1699
F3.0
sS'#6'
p1700
F151.0
sS'%n'
p1701
F13.0
sS'#5'
p1702
F200.0
sS',('
p1703
F1.0
sS'~='
p1704
F0.0
sS'#4'
p1705
F245.0
sS',)'
p1706
F8.0
sS'-g'
p1707
F782.0
sS',<'
p1708
F2.0
sS'[+'
p1709
F0.0
sS'_:'
p1710
F19.0
sS',6'
p1711
F71.0
sS'#f'
p1712
F10.0
sS'.\\'
p1713
F1.0
sS',7'
p1714
F68.0
sS',w'
p1715
F46.0
sS'_8'
p1716
F1093.0
sS',4'
p1717
F50.0
sS'"d'
p1718
F3.0
sS'+|'
p1719
F3.0
sS'~8'
p1720
F23.0
sS'.h'
p1721
F714.0
sS'.('
p1722
F8.0
sS'.i'
p1723
F848.0
sS',5'
p1724
F49.0
sS'"e'
p1725
F8.0
sS'.k'
p1726
F649.0
sS'.l'
p1727
F1152.0
sS'.m'
p1728
F1616.0
sS'.n'
p1729
F1028.0
sS'.o'
p1730
F623.0
sS'_.'
p1731
F61.0
sS'"f'
p1732
F3.0
sS'.`'
p1733
F0.0
sS'.a'
p1734
F1504.0
sS'.b'
p1735
F1248.0
sS'7$'
p1736
F84.0
sS'j<'
p1737
F5.0
sS'j='
p1738
F36.0
sS'j>'
p1739
F1.0
sS'j?'
p1740
F8.0
sS'j8'
p1741
F1196.0
sS'j9'
p1742
F1218.0
sS'j:'
p1743
F3.0
sS'j;'
p1744
F45.0
sS'j4'
p1745
F1783.0
sS'j5'
p1746
F1102.0
sS'j6'
p1747
F1000.0
sS'j7'
p1748
F1212.0
sS'j0'
p1749
F3400.0
sS'j1'
p1750
F7226.0
sS'j2'
p1751
F3375.0
sS'j3'
p1752
F1756.0
sS'j,'
p1753
F136.0
sS'j-'
p1754
F203.0
sS'j.'
p1755
F433.0
sS'j/'
p1756
F28.0
sS'j('
p1757
F7.0
sS'j)'
p1758
F5.0
sS'j*'
p1759
F58.0
sS'j+'
p1760
F24.0
sS'j$'
p1761
F12.0
sS'j%'
p1762
F3.0
sS'j&'
p1763
F60.0
sS"j'"
p1764
F52.0
sS'#7'
p1765
F221.0
sS'j!'
p1766
F117.0
sS'j"'
p1767
F3.0
sS'j#'
p1768
F42.0
sS'.x'
p1769
F599.0
sS'_4'
p1770
F981.0
sS'#m'
p1771
F36.0
sS',0'
p1772
F147.0
sS'"`'
p1773
F0.0
sS'#l'
p1774
F33.0
sS'.z'
p1775
F139.0
sS'#c'
p1776
F28.0
sS'.{'
p1777
F0.0
sS'#b'
p1778
F33.0
sS'.|'
p1779
F3.0
sS'#a'
p1780
F52.0
sS'.}'
p1781
F2.0
sS'j|'
p1782
F1.0
sS'j}'
p1783
F1.0
sS'j~'
p1784
F4.0
sS'#h'
p1785
F15.0
sS'jx'
p1786
F477.0
sS'jy'
p1787
F1109.0
sS'jz'
p1788
F593.0
sS'j{'
p1789
F0.0
sS'jt'
p1790
F2698.0
sS'ju'
p1791
F29115.0
sS'jv'
p1792
F1418.0
sS'jw'
p1793
F1560.0
sS'jp'
p1794
F2717.0
sS'jq'
p1795
F319.0
sS'jr'
p1796
F6487.0
sS'js'
p1797
F4082.0
sS'jl'
p1798
F3488.0
sS'jm'
p1799
F5697.0
sS'jn'
p1800
F2908.0
sS'jo'
p1801
F56459.0
sS'jh'
p1802
F8026.0
sS'ji'
p1803
F17289.0
sS'jj'
p1804
F5301.0
sS'jk'
p1805
F4664.0
sS'jd'
p1806
F3807.0
sS'je'
p1807
F41264.0
sS'jf'
p1808
F1503.0
sS'jg'
p1809
F2008.0
sS'j`'
p1810
F1.0
sS'ja'
p1811
F78893.0
sS'jb'
p1812
F3502.0
sS'jc'
p1813
F4488.0
sS'j\\'
p1814
F45.0
sS'j]'
p1815
F6.0
sS'j^'
p1816
F1.0
sS'j_'
p1817
F245.0
sS'j['
p1818
F26.0
sS'.t'
p1819
F965.0
sS'#@'
p1820
F83.0
sS'#y'
p1821
F8.0
sS'.u'
p1822
F633.0
sS'!+'
p1823
F8.0
sS'#x'
p1824
F18.0
sS'#_'
p1825
F4.0
sS'#^'
p1826
F9.0
sS'#]'
p1827
F5.0
sS'#\\'
p1828
F3.0
sS'.w'
p1829
F493.0
sS'j@'
p1830
F153.0
sS'#~'
p1831
F6.0
sS'}5'
p1832
F1.0
sS'6!'
p1833
F440.0
sS'6"'
p1834
F6.0
sS'6#'
p1835
F59.0
sS'6$'
p1836
F79.0
sS'6%'
p1837
F42.0
sS'6&'
p1838
F32.0
sS"6'"
p1839
F23.0
sS'6('
p1840
F17.0
sS'6)'
p1841
F62.0
sS'6*'
p1842
F446.0
sS'6+'
p1843
F199.0
sS'6,'
p1844
F97.0
sS'6-'
p1845
F375.0
sS'6.'
p1846
F622.0
sS'6/'
p1847
F372.0
sS'60'
p1848
F45336.0
sS'61'
p1849
F49461.0
sS'62'
p1850
F43472.0
sS'63'
p1851
F32477.0
sS'64'
p1852
F29437.0
sS'65'
p1853
F34466.0
sS'66'
p1854
F53424.0
sS'67'
p1855
F36739.0
sS'68'
p1856
F33611.0
sS'69'
p1857
F60312.0
sS'6:'
p1858
F21.0
sS'6;'
p1859
F39.0
sS'6<'
p1860
F20.0
sS'6='
p1861
F98.0
sS'6>'
p1862
F4.0
sS'6?'
p1863
F76.0
sS'"l'
p1864
F4.0
sS'#p'
p1865
F33.0
sS'_n'
p1866
F896.0
sS'#w'
p1867
F17.0
sS'#v'
p1868
F6.0
sS"'?"
p1869
F0.0
sS'#u'
p1870
F10.0
sS'=2'
p1871
F211.0
sS'#t'
p1872
F30.0
sS'6`'
p1873
F19.0
sS'6a'
p1874
F1729.0
sS'6b'
p1875
F1203.0
sS'6c'
p1876
F1107.0
sS'6d'
p1877
F1180.0
sS'6e'
p1878
F834.0
sS'6f'
p1879
F845.0
sS'6g'
p1880
F817.0
sS'6h'
p1881
F847.0
sS'6i'
p1882
F594.0
sS'6j'
p1883
F1101.0
sS'6k'
p1884
F739.0
sS'6l'
p1885
F854.0
sS'6m'
p1886
F1376.0
sS'6n'
p1887
F790.0
sS'6o'
p1888
F507.0
sS'6p'
p1889
F879.0
sS'6q'
p1890
F205.0
sS'6r'
p1891
F1116.0
sS'6s'
p1892
F1426.0
sS'6t'
p1893
F1256.0
sS'6u'
p1894
F383.0
sS'6v'
p1895
F454.0
sS'6w'
p1896
F483.0
sS'6x'
p1897
F616.0
sS'6y'
p1898
F617.0
sS'6z'
p1899
F343.0
sS'6{'
p1900
F2.0
sS'6|'
p1901
F4.0
sS'6}'
p1902
F7.0
sS'6~'
p1903
F31.0
sS'}j'
p1904
F2.0
sS'6@'
p1905
F487.0
sS'}]'
p1906
F7.0
sS'}\\'
p1907
F0.0
sS'}_'
p1908
F0.0
sS'}^'
p1909
F0.0
sS'}['
p1910
F4.0
sS'_b'
p1911
F2091.0
sS"'$"
p1912
F1.0
sS'/x'
p1913
F28.0
sS'}@'
p1914
F2.0
sS'=<'
p1915
F13.0
sS"'#"
p1916
F28.0
sS'6['
p1917
F17.0
sS'6\\'
p1918
F29.0
sS'6]'
p1919
F68.0
sS'6^'
p1920
F19.0
sS'6_'
p1921
F230.0
sS"'!"
p1922
F0.0
sS"'/"
p1923
F31.0
sS'=?'
p1924
F16.0
sS'[c'
p1925
F21.0
sS',8'
p1926
F86.0
sS'~-'
p1927
F0.0
sS'#['
p1928
F2.0
sS'}7'
p1929
F2.0
sS',;'
p1930
F54.0
sS'+;'
p1931
F0.0
sS'2\\'
p1932
F19.0
sS',9'
p1933
F76.0
sS'2]'
p1934
F15.0
sS'"i'
p1935
F4.0
sS"'("
p1936
F2.0
sS'2^'
p1937
F14.0
sS'2_'
p1938
F400.0
sS'"j'
p1939
F6.0
sS'2['
p1940
F12.0
sS'.v'
p1941
F316.0
sS'"k'
p1942
F1.0
sS'~r'
p1943
F105.0
sS'2@'
p1944
F653.0
sS'(z'
p1945
F1.0
sS'({'
p1946
F1.0
sS'(x'
p1947
F9.0
sS'(y'
p1948
F26.0
sS'(~'
p1949
F3.0
sS'(|'
p1950
F0.0
sS'(}'
p1951
F0.0
sS'(r'
p1952
F28.0
sS'(s'
p1953
F64.0
sS'(p'
p1954
F37.0
sS'(q'
p1955
F3.0
sS'(v'
p1956
F11.0
sS'(w'
p1957
F13.0
sS'!1'
p1958
F680.0
sS'(u'
p1959
F8.0
sS'(j'
p1960
F34.0
sS'(k'
p1961
F45.0
sS'"t'
p1962
F7.0
sS'(i'
p1963
F28.0
sS'(n'
p1964
F27.0
sS'(o'
p1965
F22.0
sS'(l'
p1966
F300.0
sS'(m'
p1967
F83.0
sS'(b'
p1968
F38.0
sS'(c'
p1969
F52.0
sS'(`'
p1970
F0.0
sS'(a'
p1971
F70.0
sS'(f'
p1972
F23.0
sS'(g'
p1973
F21.0
sS'(d'
p1974
F36.0
sS'(e'
p1975
F23.0
sS'\\6'
p1976
F1.0
sS'(['
p1977
F2.0
sS'\\4'
p1978
F3.0
sS'\\5'
p1979
F4.0
sS'(^'
p1980
F7.0
sS'(_'
p1981
F2.0
sS'(\\'
p1982
F3.0
sS'(]'
p1983
F0.0
sS'\\>'
p1984
F0.0
sS'\\?'
p1985
F0.0
sS'=:'
p1986
F1.0
sS'\\='
p1987
F2.0
sS'\\:'
p1988
F0.0
sS'\\;'
p1989
F0.0
sS'\\8'
p1990
F1.0
sS'\\9'
p1991
F3.0
sS'"u'
p1992
F2.0
sS"\\'"
p1993
F1573.0
sS'\\$'
p1994
F0.0
sS'\\%'
p1995
F0.0
sS'\\"'
p1996
F0.0
sS'\\#'
p1997
F0.0
sS'|v'
p1998
F3.0
sS'\\!'
p1999
F0.0
sS'\\.'
p2000
F1.0
sS'\\/'
p2001
F10.0
sS'(@'
p2002
F14.0
sS'\\-'
p2003
F0.0
sS'\\*'
p2004
F0.0
sS'\\+'
p2005
F0.0
sS'\\('
p2006
F0.0
sS'\\)'
p2007
F0.0
sS'(:'
p2008
F16.0
sS'(;'
p2009
F1.0
sS'(8'
p2010
F26.0
sS'(9'
p2011
F38.0
sS'(>'
p2012
F1.0
sS'(?'
p2013
F0.0
sS'(<'
p2014
F1.0
sS'(='
p2015
F4.0
sS'(2'
p2016
F88.0
sS'(3'
p2017
F38.0
sS'(0'
p2018
F37.0
sS'(1'
p2019
F189.0
sS'(6'
p2020
F29.0
sS'(7'
p2021
F28.0
sS'"v'
p2022
F2.0
sS'(5'
p2023
F15.0
sS'(*'
p2024
F90.0
sS'(+'
p2025
F2.0
sS'(('
p2026
F71.0
sS'()'
p2027
F219.0
sS'(.'
p2028
F10.0
sS'(/'
p2029
F4.0
sS'(,'
p2030
F1.0
sS'(-'
p2031
F3.0
sS'("'
p2032
F8.0
sS'(#'
p2033
F10.0
sS'(!'
p2034
F24.0
sS'(&'
p2035
F7.0
sS"('"
p2036
F0.0
sS'($'
p2037
F12.0
sS'(%'
p2038
F10.0
sS'\\v'
p2039
F2.0
sS'\\w'
p2040
F1.0
sS'\\t'
p2041
F7.0
sS'\\u'
p2042
F1.0
sS'\\r'
p2043
F5.0
sS'\\s'
p2044
F5.0
sS'=$'
p2045
F3.0
sS'\\q'
p2046
F1.0
sS'\\~'
p2047
F0.0
sS'#+'
p2048
F1.0
sS'\\}'
p2049
F0.0
sS'"w'
p2050
F3.0
sS'\\{'
p2051
F0.0
sS'\\x'
p2052
F0.0
sS'\\y'
p2053
F1.0
sS'\\f'
p2054
F1.0
sS'\\g'
p2055
F0.0
sS'+`'
p2056
F0.0
sS'\\e'
p2057
F6.0
sS'\\b'
p2058
F1.0
sS'\\c'
p2059
F3.0
sS'\\`'
p2060
F0.0
sS'2}'
p2061
F9.0
sS'\\n'
p2062
F5.0
sS'\\o'
p2063
F7.0
sS'\\l'
p2064
F3.0
sS'\\m'
p2065
F5.0
sS'\\j'
p2066
F2.0
sS'\\k'
p2067
F3.0
sS'\\h'
p2068
F5.0
sS'\\i'
p2069
F3.0
sS';s'
p2070
F45.0
sS';r'
p2071
F26.0
sS';q'
p2072
F1.0
sS';p'
p2073
F137.0
sS';w'
p2074
F11.0
sS';v'
p2075
F36.0
sS';u'
p2076
F61.0
sS';t'
p2077
F35.0
sS'#*'
p2078
F18.0
sS';z'
p2079
F1.0
sS'"p'
p2080
F3.0
sS';x'
p2081
F10.0
sS';~'
p2082
F0.0
sS';}'
p2083
F0.0
sS';|'
p2084
F0.0
sS';c'
p2085
F18.0
sS';b'
p2086
F81.0
sS';a'
p2087
F93.0
sS';`'
p2088
F0.0
sS';g'
p2089
F61.0
sS';f'
p2090
F71.0
sS';e'
p2091
F85.0
sS';d'
p2092
F58.0
sS';k'
p2093
F149.0
sS';j'
p2094
F61.0
sS';i'
p2095
F200.0
sS';h'
p2096
F39.0
sS';o'
p2097
F120.0
sS';n'
p2098
F23.0
sS';m'
p2099
F12.0
sS';l'
p2100
F110.0
sS'o/'
p2101
F230.0
sS'o.'
p2102
F6074.0
sS'o-'
p2103
F1701.0
sS'o,'
p2104
F317.0
sS'o+'
p2105
F280.0
sS'o*'
p2106
F743.0
sS'o)'
p2107
F79.0
sS'o('
p2108
F114.0
sS"o'"
p2109
F107.0
sS'o&'
p2110
F235.0
sS'o%'
p2111
F32.0
sS'o$'
p2112
F160.0
sS'o#'
p2113
F476.0
sS'o"'
p2114
F14.0
sS'o!'
p2115
F1350.0
sS';\\'
p2116
F48.0
sS'o?'
p2117
F218.0
sS'o>'
p2118
F13.0
sS'o='
p2119
F220.0
sS'o<'
p2120
F54.0
sS'o;'
p2121
F135.0
sS'o:'
p2122
F107.0
sS'o9'
p2123
F9279.0
sS'o8'
p2124
F8135.0
sS'o7'
p2125
F7485.0
sS'o6'
p2126
F6904.0
sS'o5'
p2127
F6254.0
sS'o4'
p2128
F7149.0
sS'o3'
p2129
F8672.0
sS'o2'
p2130
F25010.0
sS'o1'
p2131
F52084.0
sS'o0'
p2132
F16201.0
sS';3'
p2133
F17.0
sS';2'
p2134
F35.0
sS';1'
p2135
F84.0
sS';0'
p2136
F36.0
sS'#('
p2137
F6.0
sS'2b'
p2138
F3694.0
sS';5'
p2139
F5.0
sS';4'
p2140
F12.0
sS';;'
p2141
F231.0
sS';:'
p2142
F16.0
sS';9'
p2143
F20.0
sS'2c'
p2144
F2791.0
sS';?'
p2145
F1.0
sS';>'
p2146
F1.0
sS';='
p2147
F6.0
sS'o@'
p2148
F781.0
sS'o_'
p2149
F3769.0
sS'o^'
p2150
F98.0
sS'o]'
p2151
F33.0
sS'o\\'
p2152
F77.0
sS'o['
p2153
F54.0
sS';&'
p2154
F11.0
sS'+9'
p2155
F99.0
sS';$'
p2156
F0.0
sS';+'
p2157
F0.0
sS';*'
p2158
F6.0
sS';)'
p2159
F44.0
sS';('
p2160
F0.0
sS';/'
p2161
F21.0
sS';.'
p2162
F40.0
sS';-'
p2163
F19.0
sS';,'
p2164
F30.0
sS'oo'
p2165
F136413.0
sS'on'
p2166
F279850.0
sS'om'
p2167
F116842.0
sS'ol'
p2168
F146786.0
sS'ok'
p2169
F52189.0
sS'oj'
p2170
F15685.0
sS'oi'
p2171
F26010.0
sS'oh'
p2172
F33383.0
sS'og'
p2173
F42241.0
sS'of'
p2174
F27055.0
sS'oe'
p2175
F35683.0
sS'od'
p2176
F62159.0
sS'oc'
p2177
F82593.0
sS'ob'
p2178
F55405.0
sS'oa'
p2179
F33221.0
sS'o`'
p2180
F28.0
sS'o~'
p2181
F69.0
sS'o}'
p2182
F15.0
sS'o|'
p2183
F8.0
sS'o{'
p2184
F3.0
sS'oz'
p2185
F13153.0
sS'oy'
p2186
F59264.0
sS'ox'
p2187
F25909.0
sS'ow'
p2188
F53934.0
sS'ov'
p2189
F82404.0
sS'ou'
p2190
F81190.0
sS'ot'
p2191
F94420.0
sS'os'
p2192
F122047.0
sS'or'
p2193
F180252.0
sS'oq'
p2194
F2460.0
sS'op'
p2195
F69581.0
sS'#.'
p2196
F3.0
sS'#-'
p2197
F3.0
sS'~k'
p2198
F94.0
sS'>}'
p2199
F0.0
sS'#,'
p2200
F5.0
sS'##'
p2201
F406.0
sS'7;'
p2202
F18.0
sS"'^"
p2203
F4.0
sS'#"'
p2204
F0.0
sS"']"
p2205
F19.0
sS'{,'
p2206
F5.0
sS'aa'
p2207
F34671.0
sS'a`'
p2208
F59.0
sS'ac'
p2209
F115243.0
sS'ab'
p2210
F104290.0
sS'ae'
p2211
F34657.0
sS'ad'
p2212
F120588.0
sS'ag'
p2213
F57744.0
sS'af'
p2214
F28922.0
sS'ai'
p2215
F99536.0
sS'ah'
p2216
F72370.0
sS'ak'
p2217
F77064.0
sS'aj'
p2218
F25936.0
sS'am'
p2219
F225714.0
sS'al'
p2220
F228724.0
sS'ao'
p2221
F21410.0
sS'an'
p2222
F529571.0
sS'aq'
p2223
F9142.0
sS'ap'
p2224
F65144.0
sS'as'
p2225
F183193.0
sS'ar'
p2226
F332474.0
sS'au'
p2227
F48907.0
sS'at'
p2228
F180690.0
sS'aw'
p2229
F35508.0
sS'av'
p2230
F48913.0
sS'ay'
p2231
F120330.0
sS'ax'
p2232
F14817.0
sS'a{'
p2233
F5.0
sS'az'
p2234
F46483.0
sS'a}'
p2235
F24.0
sS'a|'
p2236
F14.0
sS'a~'
p2237
F195.0
sS'a@'
p2238
F1382.0
sS'}s'
p2239
F4.0
sS'79'
p2240
F37036.0
sS'}r'
p2241
F6.0
sS'}}'
p2242
F23.0
sS'}|'
p2243
F0.0
sS'a['
p2244
F41.0
sS'+\\'
p2245
F1.0
sS'a]'
p2246
F47.0
sS'a\\'
p2247
F136.0
sS'a_'
p2248
F6531.0
sS'a^'
p2249
F36.0
sS'a!'
p2250
F2240.0
sS'+c'
p2251
F117.0
sS'a#'
p2252
F876.0
sS'a"'
p2253
F12.0
sS'a%'
p2254
F40.0
sS'a$'
p2255
F342.0
sS"a'"
p2256
F171.0
sS'a&'
p2257
F564.0
sS'a)'
p2258
F101.0
sS'a('
p2259
F130.0
sS'a+'
p2260
F426.0
sS'a*'
p2261
F1374.0
sS'a-'
p2262
F2545.0
sS'a,'
p2263
F444.0
sS'a/'
p2264
F358.0
sS'a.'
p2265
F4668.0
sS'a1'
p2266
F98948.0
sS'a0'
p2267
F31730.0
sS'a3'
p2268
F15823.0
sS'a2'
p2269
F46737.0
sS'a5'
p2270
F11078.0
sS'a4'
p2271
F13308.0
sS'a7'
p2272
F13517.0
sS'a6'
p2273
F11094.0
sS'a9'
p2274
F16956.0
sS'a8'
p2275
F15658.0
sS'a;'
p2276
F147.0
sS'a:'
p2277
F97.0
sS'a='
p2278
F340.0
sS'a<'
p2279
F137.0
sS'a?'
p2280
F230.0
sS'a>'
p2281
F9.0
sS'"o'
p2282
F2.0
sS'}e'
p2283
F4.0
sS'+e'
p2284
F69.0
sS'}d'
p2285
F10.0
sS'>s'
p2286
F4.0
sS'+d'
p2287
F84.0
sS'}g'
p2288
F4.0
sS'#&'
p2289
F9.0
sS'+k'
p2290
F117.0
sS'}f'
p2291
F1.0
sS'+j'
p2292
F109.0
sS'|y'
p2293
F0.0
sS'}a'
p2294
F9.0
sS'~3'
p2295
F26.0
sS'+i'
p2296
F33.0
sS'}`'
p2297
F0.0
sS't^'
p2298
F45.0
sS't_'
p2299
F2165.0
sS't\\'
p2300
F93.0
sS't]'
p2301
F29.0
sS't['
p2302
F31.0
sS'+o'
p2303
F27.0
sS'}b'
p2304
F4.0
sS'#%'
p2305
F29.0
sS'+n'
p2306
F72.0
sS'}m'
p2307
F5.0
sS'+m'
p2308
F204.0
sS'}l'
p2309
F4.0
sS'-]'
p2310
F3.0
sS'-\\'
p2311
F4.0
sS'-_'
p2312
F26.0
sS'+l'
p2313
F102.0
sS'}o'
p2314
F1.0
sS't@'
p2315
F1021.0
sS't~'
p2316
F72.0
sS'+s'
p2317
F133.0
sS't|'
p2318
F5.0
sS't}'
p2319
F15.0
sS'tz'
p2320
F14717.0
sS't{'
p2321
F1.0
sS'tx'
p2322
F2984.0
sS'ty'
p2323
F72250.0
sS'tv'
p2324
F3759.0
sS'tw'
p2325
F19483.0
sS'tt'
p2326
F75815.0
sS'tu'
p2327
F61569.0
sS'tr'
p2328
F104178.0
sS'ts'
p2329
F42087.0
sS'tp'
p2330
F8556.0
sS'tq'
p2331
F2936.0
sS'tn'
p2332
F11524.0
sS'to'
p2333
F187685.0
sS'tl'
p2334
F23578.0
sS'tm'
p2335
F21233.0
sS'tj'
p2336
F10649.0
sS'tk'
p2337
F11973.0
sS'th'
p2338
F136602.0
sS'ti'
p2339
F171619.0
sS'tf'
p2340
F7150.0
sS'tg'
p2341
F8221.0
sS'td'
p2342
F9127.0
sS'te'
p2343
F241242.0
sS'tb'
p2344
F16604.0
sS'tc'
p2345
F26246.0
sS't`'
p2346
F24.0
sS'ta'
p2347
F260783.0
sS'+u'
p2348
F21.0
sS'#;'
p2349
F3.0
sS'+t'
p2350
F118.0
sS'~m'
p2351
F180.0
sS'+{'
p2352
F0.0
sS'|}'
p2353
F5.0
sS'+z'
p2354
F21.0
sS'+y'
p2355
F47.0
sS't>'
p2356
F6.0
sS't?'
p2357
F211.0
sS't<'
p2358
F63.0
sS't='
p2359
F109.0
sS't:'
p2360
F39.0
sS't;'
p2361
F65.0
sS't8'
p2362
F6552.0
sS't9'
p2363
F6530.0
sS't6'
p2364
F6396.0
sS't7'
p2365
F6249.0
sS't4'
p2366
F8505.0
sS't5'
p2367
F6217.0
sS't2'
p2368
F18529.0
sS't3'
p2369
F10190.0
sS't0'
p2370
F14610.0
sS't1'
p2371
F37974.0
sS't.'
p2372
F3073.0
sS't/'
p2373
F154.0
sS't,'
p2374
F187.0
sS't-'
p2375
F1718.0
sS't*'
p2376
F455.0
sS't+'
p2377
F111.0
sS't('
p2378
F46.0
sS't)'
p2379
F30.0
sS't&'
p2380
F286.0
sS"t'"
p2381
F114.0
sS't$'
p2382
F147.0
sS't%'
p2383
F32.0
sS't"'
p2384
F14.0
sS't#'
p2385
F343.0
sS'-;'
p2386
F16.0
sS't!'
p2387
F1551.0
sS'}:'
p2388
F8.0
sS'@@'
p2389
F627.0
sS'#9'
p2390
F177.0
sS':;'
p2391
F11.0
sS'}4'
p2392
F8.0
sS'^#'
p2393
F5.0
sS'~4'
p2394
F16.0
sS'@['
p2395
F1.0
sS'@^'
p2396
F13.0
sS'@_'
p2397
F50.0
sS'@\\'
p2398
F1.0
sS'@]'
p2399
F4.0
sS'@b'
p2400
F344.0
sS'@c'
p2401
F473.0
sS'@`'
p2402
F2.0
sS'@a'
p2403
F781.0
sS'#8'
p2404
F190.0
sS'@g'
p2405
F363.0
sS';y'
p2406
F154.0
sS'+('
p2407
F3.0
sS'@j'
p2408
F129.0
sS'@k'
p2409
F234.0
sS'@h'
p2410
F4304.0
sS'@i'
p2411
F178.0
sS'@n'
p2412
F1020.0
sS'@o'
p2413
F99.0
sS'@l'
p2414
F582.0
sS':1'
p2415
F146.0
sS'@r'
p2416
F696.0
sS'@s'
p2417
F667.0
sS'@p'
p2418
F289.0
sS'@q'
p2419
F40.0
sS'@v'
p2420
F156.0
sS'@w'
p2421
F208.0
sS'@t'
p2422
F523.0
sS'@u'
p2423
F143.0
sS'@z'
p2424
F107.0
sS'@{'
p2425
F4.0
sS'@x'
p2426
F64.0
sS'@y'
p2427
F2760.0
sS'@~'
p2428
F37.0
sS'@|'
p2429
F2.0
sS'@}'
p2430
F10.0
sS'^9'
p2431
F8.0
sS'#?'
p2432
F7.0
sS'+/'
p2433
F7.0
sS'}6'
p2434
F4.0
sS'}h'
p2435
F2.0
sS'^:'
p2436
F4.0
sS'#>'
p2437
F0.0
sS'@#'
p2438
F571.0
sS'+.'
p2439
F17.0
sS'@&'
p2440
F27.0
sS"@'"
p2441
F2.0
sS'@$'
p2442
F151.0
sS'@%'
p2443
F22.0
sS'@*'
p2444
F51.0
sS'@+'
p2445
F11.0
sS'@('
p2446
F17.0
sS'@)'
p2447
F27.0
sS'@.'
p2448
F61.0
sS'@/'
p2449
F15.0
sS'@,'
p2450
F5.0
sS'@-'
p2451
F11.0
sS'@2'
p2452
F851.0
sS'@3'
p2453
F319.0
sS'@0'
p2454
F386.0
sS'@1'
p2455
F1823.0
sS'@6'
p2456
F175.0
sS'@7'
p2457
F201.0
sS'@4'
p2458
F200.0
sS'@5'
p2459
F181.0
sS'@:'
p2460
F7.0
sS'@;'
p2461
F2.0
sS'@8'
p2462
F218.0
sS'@9'
p2463
F285.0
sS'@>'
p2464
F2.0
sS'@?'
p2465
F16.0
sS'@<'
p2466
F1.0
sS'@='
p2467
F6.0
sS'+x'
p2468
F13.0
sS'}0'
p2469
F5.0
sS'#!'
p2470
F99.0
sS'|e'
p2471
F3.0
sS'+,'
p2472
F1.0
sS'}3'
p2473
F5.0
sS'~5'
p2474
F8.0
sS'^='
p2475
F7.0
sS'#}'
p2476
F1.0
sS'}2'
p2477
F7.0
sS'+#'
p2478
F1.0
sS'+"'
p2479
F1.0
sS'+!'
p2480
F6.0
sS"+'"
p2481
F1.0
sS'/@'
p2482
F8.0
sS'}='
p2483
F1.0
sS'+&'
p2484
F0.0
sS'/_'
p2485
F2.0
sS'+%'
p2486
F2.0
sS'/^'
p2487
F0.0
sS'+$'
p2488
F0.0
sS'/]'
p2489
F6.0
sS'++'
p2490
F440.0
sS'/\\'
p2491
F16.0
sS'?@'
p2492
F8.0
sS'+*'
p2493
F41.0
sS'/['
p2494
F8.0
sS'}<'
p2495
F3.0
sS'+)'
p2496
F0.0
sS'f0'
p2497
F2616.0
sS'f1'
p2498
F7220.0
sS'f2'
p2499
F3618.0
sS'f3'
p2500
F1988.0
sS'f4'
p2501
F2048.0
sS'f5'
p2502
F1278.0
sS'f6'
p2503
F1263.0
sS'f7'
p2504
F1363.0
sS'f8'
p2505
F1363.0
sS'f9'
p2506
F1405.0
sS'f:'
p2507
F12.0
sS'f;'
p2508
F67.0
sS'f<'
p2509
F12.0
sS'f='
p2510
F57.0
sS'f>'
p2511
F2.0
sS'f?'
p2512
F33.0
sS'f!'
p2513
F220.0
sS'f"'
p2514
F3.0
sS'f#'
p2515
F66.0
sS'f$'
p2516
F18.0
sS'f%'
p2517
F6.0
sS'f&'
p2518
F57.0
sS"f'"
p2519
F24.0
sS'f('
p2520
F7.0
sS'f)'
p2521
F5.0
sS'f*'
p2522
F106.0
sS'f+'
p2523
F26.0
sS'f,'
p2524
F105.0
sS'f-'
p2525
F209.0
sS'f.'
p2526
F490.0
sS'f/'
p2527
F37.0
sS'+3'
p2528
F87.0
sS'+2'
p2529
F179.0
sS'+1'
p2530
F398.0
sS'{_'
p2531
F4.0
sS'+0'
p2532
F113.0
sS'-a'
p2533
F1183.0
sS'}>'
p2534
F0.0
sS'~6'
p2535
F18.0
sS'+6'
p2536
F65.0
sS'fp'
p2537
F1482.0
sS'fq'
p2538
F307.0
sS'fr'
p2539
F26130.0
sS'fs'
p2540
F3798.0
sS'ft'
p2541
F8286.0
sS'fu'
p2542
F18879.0
sS'fv'
p2543
F998.0
sS'fw'
p2544
F1157.0
sS'fx'
p2545
F779.0
sS'fy'
p2546
F7001.0
sS'fz'
p2547
F581.0
sS'f{'
p2548
F1.0
sS'f|'
p2549
F0.0
sS'f}'
p2550
F3.0
sS'f~'
p2551
F14.0
sS'f`'
p2552
F5.0
sS'fa'
p2553
F44628.0
sS'fb'
p2554
F2263.0
sS'fc'
p2555
F6013.0
sS'fd'
p2556
F2832.0
sS'fe'
p2557
F41512.0
sS'ff'
p2558
F28132.0
sS'fg'
p2559
F3099.0
sS'fh'
p2560
F2039.0
sS'fi'
p2561
F35852.0
sS'fj'
p2562
F1301.0
sS'fk'
p2563
F1558.0
sS'fl'
p2564
F20174.0
sS'fm'
p2565
F2855.0
sS'fn'
p2566
F1722.0
sS'fo'
p2567
F25331.0
sS'+8'
p2568
F57.0
sS'+?'
p2569
F5.0
sS'f['
p2570
F23.0
sS'f\\'
p2571
F15.0
sS'f]'
p2572
F116.0
sS'f^'
p2573
F9.0
sS'f_'
p2574
F329.0
sS'f@'
p2575
F155.0
sS'+5'
p2576
F57.0
sS'~%'
p2577
F1.0
sS'}8'
p2578
F3.0
sS'+='
p2579
F9.0
sS'+<'
p2580
F1.0
sS'y)'
p2581
F100.0
sS'y('
p2582
F104.0
sS'y+'
p2583
F257.0
sS'y*'
p2584
F1192.0
sS'y-'
p2585
F2880.0
sS'y,'
p2586
F316.0
sS'y/'
p2587
F270.0
sS'y.'
p2588
F3038.0
sS'y!'
p2589
F2728.0
sS'y#'
p2590
F1099.0
sS'y"'
p2591
F15.0
sS'y%'
p2592
F53.0
sS'y$'
p2593
F342.0
sS"y'"
p2594
F219.0
sS'y&'
p2595
F642.0
sS'y9'
p2596
F13068.0
sS'y8'
p2597
F12236.0
sS'y;'
p2598
F125.0
sS'y:'
p2599
F84.0
sS'y='
p2600
F306.0
sS'y<'
p2601
F200.0
sS'y?'
p2602
F252.0
sS'y>'
p2603
F16.0
sS'y1'
p2604
F76058.0
sS'y0'
p2605
F25943.0
sS'y3'
p2606
F14415.0
sS'y2'
p2607
F37511.0
sS'y5'
p2608
F10145.0
sS'y4'
p2609
F13609.0
sS'y7'
p2610
F12318.0
sS'y6'
p2611
F11478.0
sS'24'
p2612
F79645.0
sS'25'
p2613
F96049.0
sS'26'
p2614
F62312.0
sS'27'
p2615
F59816.0
sS'20'
p2616
F170270.0
sS'21'
p2617
F131870.0
sS'22'
p2618
F112182.0
sS'23'
p2619
F187680.0
sS'2<'
p2620
F8.0
sS'2='
p2621
F91.0
sS'2>'
p2622
F5.0
sS'2?'
p2623
F123.0
sS'28'
p2624
F63536.0
sS'29'
p2625
F55927.0
sS'2:'
p2626
F32.0
sS'2;'
p2627
F13.0
sS'2$'
p2628
F96.0
sS'2%'
p2629
F31.0
sS'2&'
p2630
F26.0
sS"2'"
p2631
F17.0
sS'2!'
p2632
F628.0
sS'2"'
p2633
F7.0
sS'2#'
p2634
F120.0
sS'2,'
p2635
F95.0
sS'2-'
p2636
F532.0
sS'2.'
p2637
F1049.0
sS'2/'
p2638
F517.0
sS'2('
p2639
F16.0
sS'2)'
p2640
F60.0
sS'2*'
p2641
F498.0
sS'2+'
p2642
F187.0
sS'yi'
p2643
F15920.0
sS'yh'
p2644
F10693.0
sS'yk'
p2645
F13173.0
sS'yj'
p2646
F11910.0
sS'ym'
p2647
F27783.0
sS'yl'
p2648
F49966.0
sS'yo'
p2649
F68400.0
sS'yn'
p2650
F39714.0
sS'ya'
p2651
F109933.0
sS'y`'
p2652
F64.0
sS'yc'
p2653
F21759.0
sS'yb'
p2654
F34871.0
sS'ye'
p2655
F47549.0
sS'yd'
p2656
F24708.0
sS'yg'
p2657
F17972.0
sS'yf'
p2658
F10364.0
sS'yy'
p2659
F10393.0
sS'yx'
p2660
F4348.0
sS'y{'
p2661
F30.0
sS'yz'
p2662
F7630.0
sS'y}'
p2663
F35.0
sS'y|'
p2664
F3.0
sS'}?'
p2665
F0.0
sS'y~'
p2666
F243.0
sS'yq'
p2667
F1963.0
sS'yp'
p2668
F16032.0
sS'ys'
p2669
F40505.0
sS'yr'
p2670
F22500.0
sS'yu'
p2671
F28430.0
sS'yt'
p2672
F20602.0
sS'yw'
p2673
F6243.0
sS'yv'
p2674
F6068.0
sS'2t'
p2675
F2399.0
sS'2u'
p2676
F1224.0
sS'2v'
p2677
F647.0
sS'2w'
p2678
F1370.0
sS'2p'
p2679
F2083.0
sS'2q'
p2680
F564.0
sS'2r'
p2681
F1988.0
sS'2s'
p2682
F3329.0
sS'2|'
p2683
F1.0
sS'y@'
p2684
F1303.0
sS'2~'
p2685
F38.0
sS'2x'
p2686
F1286.0
sS'2y'
p2687
F977.0
sS'2z'
p2688
F556.0
sS'2{'
p2689
F3.0
sS'2d'
p2690
F2815.0
sS'2e'
p2691
F1544.0
sS'y['
p2692
F160.0
sS'2g'
p2693
F1916.0
sS'y]'
p2694
F64.0
sS'y\\'
p2695
F176.0
sS'y_'
p2696
F5540.0
sS'y^'
p2697
F41.0
sS'2l'
p2698
F2310.0
sS'2m'
p2699
F3199.0
sS'2n'
p2700
F2018.0
sS'2o'
p2701
F1228.0
sS'2h'
p2702
F1674.0
sS'2i'
p2703
F895.0
sS'2j'
p2704
F1679.0
sS'2k'
p2705
F5198.0
sS'^('
p2706
F7.0
sS'?&'
p2707
F0.0
sS'}i'
p2708
F1.0
sS'$w'
p2709
F84.0
sS'}t'
p2710
F2.0
sS'^)'
p2711
F12.0
sS':]'
p2712
F26.0
sS'}&'
p2713
F0.0
sS'>$'
p2714
F1.0
sS'>%'
p2715
F0.0
sS'/o'
p2716
F113.0
sS'$q'
p2717
F10.0
sS'+>'
p2718
F0.0
sS'}!'
p2719
F3.0
sS']t'
p2720
F27.0
sS'#|'
p2721
F1.0
sS'/n'
p2722
F55.0
sS'^+'
p2723
F2.0
sS'|^'
p2724
F2.0
sS',j'
p2725
F316.0
sS'#r'
p2726
F25.0
sS'$n'
p2727
F32.0
sS'3['
p2728
F13.0
sS'$l'
p2729
F72.0
sS'$m'
p2730
F101.0
sS'$j'
p2731
F27.0
sS'$k'
p2732
F40.0
sS'$h'
p2733
F134.0
sS'$i'
p2734
F53.0
sS'$f'
p2735
F28.0
sS'$g'
p2736
F29.0
sS'$d'
p2737
F34.0
sS'$e'
p2738
F87.0
sS'$b'
p2739
F69.0
sS'$c'
p2740
F64.0
sS'$`'
p2741
F2.0
sS'$a'
p2742
F91.0
sS'$~'
p2743
F11.0
sS'$|'
p2744
F1.0
sS'$}'
p2745
F0.0
sS'$z'
p2746
F8.0
sS'${'
p2747
F1.0
sS'$x'
p2748
F16.0
sS'$y'
p2749
F31.0
sS'$v'
p2750
F10.0
sS'3_'
p2751
F484.0
sS'$t'
p2752
F151.0
sS'$u'
p2753
F45.0
sS'$r'
p2754
F53.0
sS'$s'
p2755
F45.0
sS'$p'
p2756
F67.0
sS'3^'
p2757
F9.0
sS'}"'
p2758
F1.0
sS'|\\'
p2759
F5.0
sS'3]'
p2760
F32.0
sS'3\\'
p2761
F26.0
sS'$@'
p2762
F63.0
sS'$^'
p2763
F9.0
sS'$_'
p2764
F4.0
sS'$\\'
p2765
F0.0
sS'$]'
p2766
F1.0
sS'$['
p2767
F3.0
sS'.0'
p2768
F1425.0
sS',h'
p2769
F139.0
sS'}-'
p2770
F1.0
sS'$.'
p2771
F9.0
sS'$/'
p2772
F3.0
sS'$,'
p2773
F3.0
sS'$-'
p2774
F2.0
sS'$*'
p2775
F27.0
sS'$+'
p2776
F5.0
sS'$('
p2777
F6.0
sS'$)'
p2778
F7.0
sS'$&'
p2779
F18.0
sS"$'"
p2780
F0.0
sS'$$'
p2781
F1023.0
sS'$%'
p2782
F181.0
sS'$"'
p2783
F2.0
sS'$#'
p2784
F52.0
sS'$!'
p2785
F56.0
sS'$>'
p2786
F1.0
sS'$?'
p2787
F2.0
sS'$<'
p2788
F1.0
sS'$='
p2789
F3.0
sS'$:'
p2790
F0.0
sS'$;'
p2791
F0.0
sS'$8'
p2792
F36.0
sS'$9'
p2793
F27.0
sS'$6'
p2794
F29.0
sS'$7'
p2795
F31.0
sS'$4'
p2796
F78.0
sS'$5'
p2797
F58.0
sS'$2'
p2798
F84.0
sS'$3'
p2799
F50.0
sS'$0'
p2800
F81.0
sS'$1'
p2801
F253.0
sS'{\\'
p2802
F0.0
sS',v'
p2803
F153.0
sS'/&'
p2804
F2.0
sS'}/'
p2805
F0.0
sS'7g'
p2806
F858.0
sS'7f'
p2807
F782.0
sS'7e'
p2808
F981.0
sS'7d'
p2809
F1163.0
sS'7c'
p2810
F1237.0
sS'7b'
p2811
F1361.0
sS'7a'
p2812
F1996.0
sS'7`'
p2813
F16.0
sS'7o'
p2814
F589.0
sS'7n'
p2815
F823.0
sS'7m'
p2816
F1540.0
sS'7l'
p2817
F958.0
sS'7k'
p2818
F746.0
sS'7j'
p2819
F1174.0
sS'7i'
p2820
F545.0
sS'7h'
p2821
F814.0
sS'7w'
p2822
F560.0
sS'7v'
p2823
F437.0
sS'7u'
p2824
F520.0
sS'7t'
p2825
F1213.0
sS'7s'
p2826
F1517.0
sS'7r'
p2827
F1059.0
sS'7q'
p2828
F282.0
sS'7p'
p2829
F878.0
sS'}.'
p2830
F1.0
sS'7~'
p2831
F36.0
sS'7}'
p2832
F9.0
sS'7|'
p2833
F4.0
sS'7{'
p2834
F1.0
sS'7z'
p2835
F355.0
sS'7y'
p2836
F633.0
sS'7x'
p2837
F722.0
sS'k#'
p2838
F210.0
sS'k"'
p2839
F8.0
sS'k!'
p2840
F902.0
sS'3@'
p2841
F857.0
sS"k'"
p2842
F85.0
sS'k&'
p2843
F183.0
sS'k%'
p2844
F20.0
sS'k$'
p2845
F97.0
sS'k+'
p2846
F78.0
sS'k*'
p2847
F383.0
sS'k)'
p2848
F35.0
sS'k('
p2849
F45.0
sS'k/'
p2850
F79.0
sS'k.'
p2851
F1197.0
sS'k-'
p2852
F885.0
sS'k,'
p2853
F331.0
sS'k3'
p2854
F5615.0
sS'k2'
p2855
F11133.0
sS'k1'
p2856
F23493.0
sS'k0'
p2857
F7779.0
sS'k7'
p2858
F5121.0
sS'k6'
p2859
F4100.0
sS'k5'
p2860
F3760.0
sS'k4'
p2861
F5125.0
sS'k;'
p2862
F175.0
sS'k:'
p2863
F30.0
sS'k9'
p2864
F4555.0
sS'k8'
p2865
F6988.0
sS'k?'
p2866
F86.0
sS'k>'
p2867
F7.0
sS'k='
p2868
F108.0
sS'k<'
p2869
F41.0
sS"7'"
p2870
F29.0
sS'7&'
p2871
F46.0
sS'7%'
p2872
F23.0
sS'k@'
p2873
F559.0
sS'7#'
p2874
F62.0
sS'7"'
p2875
F5.0
sS'7!'
p2876
F491.0
sS'~?'
p2877
F3.0
sS'7/'
p2878
F436.0
sS'7.'
p2879
F637.0
sS'7-'
p2880
F392.0
sS'7,'
p2881
F55.0
sS'7+'
p2882
F109.0
sS'7*'
p2883
F478.0
sS'7)'
p2884
F58.0
sS'7('
p2885
F17.0
sS'77'
p2886
F56576.0
sS'76'
p2887
F31599.0
sS'75'
p2888
F33195.0
sS'74'
p2889
F32464.0
sS'73'
p2890
F30280.0
sS'72'
p2891
F43019.0
sS'71'
p2892
F50600.0
sS'70'
p2893
F43725.0
sS'k['
p2894
F83.0
sS'7>'
p2895
F2.0
sS'7='
p2896
F43.0
sS'7<'
p2897
F5.0
sS'k_'
p2898
F1579.0
sS'k^'
p2899
F14.0
sS'k]'
p2900
F103.0
sS'k\\'
p2901
F56.0
sS'kc'
p2902
F5932.0
sS'kb'
p2903
F6157.0
sS'ka'
p2904
F102110.0
sS'k`'
p2905
F16.0
sS'kg'
p2906
F3258.0
sS'kf'
p2907
F3267.0
sS'ke'
p2908
F105467.0
sS'kd'
p2909
F5709.0
sS'kk'
p2910
F13591.0
sS'kj'
p2911
F4238.0
sS'ki'
p2912
F107607.0
sS'kh'
p2913
F10021.0
sS'ko'
p2914
F44437.0
sS'kn'
p2915
F9555.0
sS'km'
p2916
F12136.0
sS'kl'
p2917
F15699.0
sS'ks'
p2918
F26297.0
sS'kr'
p2919
F12882.0
sS'kq'
p2920
F559.0
sS'kp'
p2921
F6193.0
sS'kw'
p2922
F4355.0
sS'kv'
p2923
F1242.0
sS'ku'
p2924
F22912.0
sS'kt'
p2925
F7969.0
sS'k{'
p2926
F17.0
sS'kz'
p2927
F2828.0
sS'ky'
p2928
F43605.0
sS'kx'
p2929
F1037.0
sS'k~'
p2930
F46.0
sS'k}'
p2931
F4.0
sS'k|'
p2932
F1.0
sS'3w'
p2933
F1231.0
sS'<"'
p2934
F1.0
sS'}*'
p2935
F1.0
sS'}z'
p2936
F1.0
sS'3k'
p2937
F1843.0
sS'3j'
p2938
F1793.0
sS',p'
p2939
F162.0
sS'3i'
p2940
F1048.0
sS'-e'
p2941
F666.0
sS'2`'
p2942
F38.0
sS'3h'
p2943
F1365.0
sS"^'"
p2944
F0.0
sS',q'
p2945
F20.0
sS'3l'
p2946
F3435.0
sS'2a'
p2947
F2818.0
sS'(t'
p2948
F49.0
sS',~'
p2949
F0.0
sS'""'
p2950
F27.0
sS';"'
p2951
F0.0
sS'(h'
p2952
F35.0
sS']]'
p2953
F48.0
sS']\\'
p2954
F34.0
sS']_'
p2955
F4.0
sS']^'
p2956
F9.0
sS']q'
p2957
F6.0
sS']['
p2958
F77.0
sS']@'
p2959
F1.0
sS']u'
p2960
F49.0
sS',|'
p2961
F0.0
sS']w'
p2962
F10.0
sS';_'
p2963
F1.0
sS'",'
p2964
F5.0
sS']p'
p2965
F54.0
sS']s'
p2966
F19.0
sS']r'
p2967
F18.0
sS']}'
p2968
F5.0
sS']|'
p2969
F2.0
sS']~'
p2970
F4.0
sS']y'
p2971
F53.0
sS']x'
p2972
F16.0
sS']{'
p2973
F0.0
sS']z'
p2974
F13.0
sS']e'
p2975
F11.0
sS']d'
p2976
F96.0
sS']g'
p2977
F33.0
sS']f'
p2978
F29.0
sS']a'
p2979
F25.0
sS']`'
p2980
F1.0
sS']c'
p2981
F14.0
sS']b'
p2982
F83.0
sS']m'
p2983
F35.0
sS']l'
p2984
F44.0
sS']o'
p2985
F28.0
sS']n'
p2986
F68.0
sS']i'
p2987
F48.0
sS']h'
p2988
F188.0
sS']k'
p2989
F110.0
sS']j'
p2990
F58.0
sS';^'
p2991
F0.0
sS'"-'
p2992
F0.0
sS'\\7'
p2993
F2.0
sS'^8'
p2994
F13.0
sS'\\2'
p2995
F4.0
sS';]'
p2996
F24.0
sS'".'
p2997
F1.0
sS']4'
p2998
F14.0
sS']7'
p2999
F14.0
sS']6'
p3000
F22.0
sS']1'
p3001
F57.0
sS'\\0'
p3002
F4.0
sS']3'
p3003
F13.0
sS']2'
p3004
F15.0
sS']='
p3005
F19.0
sS']<'
p3006
F0.0
sS']?'
p3007
F1.0
sS'\\1'
p3008
F12.0
sS']9'
p3009
F26.0
sS']8'
p3010
F11.0
sS'];'
p3011
F40.0
sS']:'
p3012
F1.0
sS']%'
p3013
F0.0
sS']$'
p3014
F0.0
sS"]'"
p3015
F22.0
sS']&'
p3016
F1.0
sS']!'
p3017
F3.0
sS']#'
p3018
F5.0
sS']"'
p3019
F0.0
sS']-'
p3020
F7.0
sS'],'
p3021
F49.0
sS']/'
p3022
F5.0
sS'].'
p3023
F4.0
sS'])'
p3024
F2.0
sS'\\<'
p3025
F0.0
sS']+'
p3026
F1.0
sS']*'
p3027
F3.0
sS')9'
p3028
F26.0
sS')8'
p3029
F17.0
sS');'
p3030
F1.0
sS'):'
p3031
F18.0
sS')='
p3032
F9.0
sS')<'
p3033
F0.0
sS')?'
p3034
F4.0
sS')>'
p3035
F1.0
sS')1'
p3036
F92.0
sS'p['
p3037
F176.0
sS')3'
p3038
F7.0
sS')2'
p3039
F32.0
sS'p^'
p3040
F35.0
sS'p_'
p3041
F839.0
sS'p\\'
p3042
F37.0
sS'p]'
p3043
F29.0
sS'))'
p3044
F76.0
sS')('
p3045
F72.0
sS'p@'
p3046
F721.0
sS')*'
p3047
F30.0
sS')-'
p3048
F1.0
sS'),'
p3049
F1.0
sS')/'
p3050
F7.0
sS').'
p3051
F7.0
sS')!'
p3052
F35.0
sS'~|'
p3053
F2.0
sS')#'
p3054
F11.0
sS')"'
p3055
F2.0
sS')%'
p3056
F15.0
sS')$'
p3057
F18.0
sS")'"
p3058
F0.0
sS')&'
p3059
F24.0
sS'pr'
p3060
F67845.0
sS'ps'
p3061
F24096.0
sS'pp'
p3062
F36986.0
sS'pq'
p3063
F997.0
sS'pv'
p3064
F1658.0
sS'pw'
p3065
F3864.0
sS'pt'
p3066
F12668.0
sS'pu'
p3067
F58079.0
sS'pz'
p3068
F2329.0
sS'p{'
p3069
F4.0
sS'px'
p3070
F1313.0
sS'py'
p3071
F18263.0
sS'p~'
p3072
F22.0
sS'p|'
p3073
F0.0
sS'p}'
p3074
F6.0
sS'pb'
p3075
F5291.0
sS'pc'
p3076
F7713.0
sS'p`'
p3077
F14.0
sS'pa'
p3078
F181993.0
sS'pf'
p3079
F3314.0
sS'pg'
p3080
F4282.0
sS'pd'
p3081
F5861.0
sS'pe'
p3082
F133515.0
sS'pj'
p3083
F4916.0
sS'pk'
p3084
F6044.0
sS'ph'
p3085
F42536.0
sS'pi'
p3086
F124068.0
sS'pn'
p3087
F4718.0
sS'po'
p3088
F125600.0
sS'pl'
p3089
F45409.0
sS'pm'
p3090
F6996.0
sS')y'
p3091
F17.0
sS')x'
p3092
F14.0
sS'){'
p3093
F1.0
sS')z'
p3094
F2.0
sS')}'
p3095
F4.0
sS')|'
p3096
F1.0
sS')~'
p3097
F5.0
sS')q'
p3098
F1.0
sS')p'
p3099
F22.0
sS')s'
p3100
F26.0
sS')r'
p3101
F21.0
sS')u'
p3102
F7.0
sS')t'
p3103
F23.0
sS')w'
p3104
F8.0
sS')v'
p3105
F8.0
sS')i'
p3106
F8.0
sS')h'
p3107
F6.0
sS')k'
p3108
F14.0
sS')j'
p3109
F19.0
sS')m'
p3110
F30.0
sS')l'
p3111
F26.0
sS')o'
p3112
F13.0
sS')n'
p3113
F14.0
sS')a'
p3114
F20.0
sS')`'
p3115
F1.0
sS')c'
p3116
F25.0
sS')b'
p3117
F26.0
sS')e'
p3118
F8.0
sS')d'
p3119
F20.0
sS')g'
p3120
F7.0
sS')f'
p3121
F8.0
sS'p2'
p3122
F8014.0
sS'p3'
p3123
F5103.0
sS'p0'
p3124
F8034.0
sS'p1'
p3125
F16421.0
sS'p6'
p3126
F2583.0
sS'p7'
p3127
F2597.0
sS'p4'
p3128
F3948.0
sS'p5'
p3129
F2468.0
sS'p:'
p3130
F41.0
sS'p;'
p3131
F144.0
sS'p8'
p3132
F2684.0
sS'p9'
p3133
F3047.0
sS'p>'
p3134
F3.0
sS'p?'
p3135
F84.0
sS'p<'
p3136
F14.0
sS'p='
p3137
F89.0
sS'p"'
p3138
F5.0
sS'p#'
p3139
F135.0
sS'p!'
p3140
F638.0
sS'p&'
p3141
F111.0
sS"p'"
p3142
F57.0
sS'p$'
p3143
F71.0
sS'p%'
p3144
F7.0
sS'p*'
p3145
F210.0
sS'p+'
p3146
F66.0
sS'p('
p3147
F19.0
sS'p)'
p3148
F17.0
sS'p.'
p3149
F1367.0
sS'p/'
p3150
F77.0
sS'p,'
p3151
F130.0
sS'p-'
p3152
F796.0
sS'<6'
p3153
F1.0
sS'<7'
p3154
F1.0
sS'<4'
p3155
F4.0
sS'<5'
p3156
F2.0
sS'<2'
p3157
F7.0
sS'<3'
p3158
F1709.0
sS'<0'
p3159
F9.0
sS'<1'
p3160
F13.0
sS'<>'
p3161
F43.0
sS'<?'
p3162
F0.0
sS'<<'
p3163
F27.0
sS'<='
p3164
F0.0
sS'<:'
p3165
F0.0
sS'<;'
p3166
F1.0
sS'<8'
p3167
F1.0
sS'<9'
p3168
F5.0
sS'<&'
p3169
F1.0
sS"<'"
p3170
F0.0
sS'<$'
p3171
F1.0
sS'<%'
p3172
F2.0
sS'"4'
p3173
F4.0
sS'<#'
p3174
F1.0
sS'<!'
p3175
F1.0
sS'<.'
p3176
F3.0
sS'</'
p3177
F15.0
sS'<,'
p3178
F1.0
sS'/,'
p3179
F11.0
sS'<*'
p3180
F5.0
sS'<+'
p3181
F0.0
sS'<('
p3182
F0.0
sS'<)'
p3183
F1.0
sS'~c'
p3184
F156.0
sS"'\\"
p3185
F21.0
sS'~d'
p3186
F113.0
sS'}w'
p3187
F3.0
sS'~e'
p3188
F61.0
sS'\\^'
p3189
F1.0
sS'"5'
p3190
F2.0
sS'~f'
p3191
F66.0
sS'\\_'
p3192
F0.0
sS'~g'
p3193
F69.0
sS'\\\\'
p3194
F4374.0
sS'#s'
p3195
F41.0
sS'<v'
p3196
F1.0
sS'<w'
p3197
F2.0
sS'<t'
p3198
F11.0
sS'<u'
p3199
F0.0
sS'<r'
p3200
F3.0
sS'<s'
p3201
F7.0
sS'<p'
p3202
F8.0
sS'<q'
p3203
F3.0
sS'<~'
p3204
F1.0
sS'<|'
p3205
F0.0
sS'<}'
p3206
F0.0
sS'<z'
p3207
F5.0
sS'<{'
p3208
F0.0
sS'<x'
p3209
F7.0
sS'<y'
p3210
F2.0
sS'"6'
p3211
F1.0
sS'<g'
p3212
F3.0
sS'<d'
p3213
F15.0
sS'<e'
p3214
F15.0
sS'<b'
p3215
F18.0
sS'(4'
p3216
F21.0
sS'<`'
p3217
F0.0
sS'<a'
p3218
F15.0
sS'<n'
p3219
F3.0
sS'<o'
p3220
F43.0
sS'<l'
p3221
F4.0
sS'<m'
p3222
F11.0
sS'<j'
p3223
F2.0
sS'/t'
p3224
F80.0
sS'<h'
p3225
F3.0
sS'<i'
p3226
F4.0
sS'~^'
p3227
F3.0
sS'<^'
p3228
F0.0
sS'<_'
p3229
F1.0
sS'<\\'
p3230
F2.0
sS'7@'
p3231
F504.0
sS'#k'
p3232
F21.0
sS'<['
p3233
F0.0
sS'"7'
p3234
F1.0
sS'<@'
p3235
F1.0
sS'/s'
p3236
F150.0
sS'\\@'
p3237
F0.0
sS'#j'
p3238
F13.0
sS'"0'
p3239
F3.0
sS'|5'
p3240
F0.0
sS'`!'
p3241
F2.0
sS'/r'
p3242
F89.0
sS'#i'
p3243
F33.0
sS'"1'
p3244
F19.0
sS"~'"
p3245
F0.0
sS'{]'
p3246
F2.0
sS'`*'
p3247
F1.0
sS'/q'
p3248
F11.0
sS'7_'
p3249
F259.0
sS'/p'
p3250
F81.0
sS'7^'
p3251
F9.0
sS'7]'
p3252
F21.0
sS'7\\'
p3253
F41.0
sS'#o'
p3254
F29.0
sS'\\p'
p3255
F1.0
sS'7['
p3256
F9.0
sS'}$'
p3257
F0.0
sS'\\|'
p3258
F3.0
sS'`7'
p3259
F8.0
sS'b$'
p3260
F42.0
sS'b%'
p3261
F7.0
sS'b&'
p3262
F91.0
sS"b'"
p3263
F51.0
sS'b!'
p3264
F278.0
sS'b"'
p3265
F4.0
sS'b#'
p3266
F109.0
sS'b,'
p3267
F146.0
sS'b-'
p3268
F384.0
sS'b.'
p3269
F603.0
sS'b/'
p3270
F50.0
sS'b('
p3271
F13.0
sS'b)'
p3272
F14.0
sS'b*'
p3273
F115.0
sS'b+'
p3274
F36.0
sS'b4'
p3275
F3082.0
sS'b5'
p3276
F1819.0
sS'b6'
p3277
F1757.0
sS'b7'
p3278
F1969.0
sS'b0'
p3279
F4966.0
sS'b1'
p3280
F12792.0
sS'b2'
p3281
F6016.0
sS'b3'
p3282
F3563.0
sS'b<'
p3283
F17.0
sS'b='
p3284
F121.0
sS'b>'
p3285
F4.0
sS'b?'
p3286
F22.0
sS'b8'
p3287
F1982.0
sS'b9'
p3288
F2024.0
sS'b:'
p3289
F7.0
sS'b;'
p3290
F110.0
sS'+q'
p3291
F22.0
sS'~>'
p3292
F1.0
sS'`>'
p3293
F0.0
sS'\\d'
p3294
F5.0
sS'~0'
p3295
F27.0
sS'~1'
p3296
F200.0
sS'~2'
p3297
F57.0
sS'bd'
p3298
F4215.0
sS'be'
p3299
F111811.0
sS'bf'
p3300
F3197.0
sS'bg'
p3301
F2640.0
sS'b`'
p3302
F3.0
sS'ba'
p3303
F111882.0
sS'bb'
p3304
F26583.0
sS'bc'
p3305
F5702.0
sS'bl'
p3306
F37978.0
sS'bm'
p3307
F4547.0
sS'bn'
p3308
F3485.0
sS'bo'
p3309
F86898.0
sS'bh'
p3310
F7037.0
sS'bi'
p3311
F60043.0
sS'bj'
p3312
F2921.0
sS'bk'
p3313
F2656.0
sS'bt'
p3314
F2876.0
sS'bu'
p3315
F41522.0
sS'bv'
p3316
F1094.0
sS'bw'
p3317
F1602.0
sS'bp'
p3318
F1782.0
sS'bq'
p3319
F417.0
sS'br'
p3320
F46954.0
sS'bs'
p3321
F9374.0
sS'b|'
p3322
F1.0
sS'b}'
p3323
F5.0
sS'b~'
p3324
F19.0
sS'~7'
p3325
F10.0
sS'bx'
p3326
F788.0
sS'by'
p3327
F44687.0
sS'bz'
p3328
F2617.0
sS'b{'
p3329
F3.0
sS'~('
p3330
F4.0
sS'b@'
p3331
F314.0
sS'~)'
p3332
F1.0
sS'~*'
p3333
F293.0
sS'~+'
p3334
F10.0
sS'b\\'
p3335
F56.0
sS'b]'
p3336
F34.0
sS'b^'
p3337
F6.0
sS'b_'
p3338
F407.0
sS'b['
p3339
F17.0
sS'|='
p3340
F1.0
sS'~.'
p3341
F6.0
sS"}'"
p3342
F1.0
sS'~/'
p3343
F1.0
sS'7?'
p3344
F83.0
sS'~!'
p3345
F243.0
sS'~"'
p3346
F0.0
sS'-`'
p3347
F4.0
sS'u='
p3348
F61.0
sS'u<'
p3349
F25.0
sS'u?'
p3350
F100.0
sS'u>'
p3351
F1.0
sS'u9'
p3352
F2054.0
sS'u8'
p3353
F2663.0
sS'u;'
p3354
F79.0
sS'u:'
p3355
F18.0
sS'u5'
p3356
F1660.0
sS'u4'
p3357
F2493.0
sS'u7'
p3358
F2107.0
sS'u6'
p3359
F1593.0
sS'u1'
p3360
F10301.0
sS'u0'
p3361
F3339.0
sS'u3'
p3362
F2481.0
sS'u2'
p3363
F6908.0
sS'u-'
p3364
F500.0
sS'u,'
p3365
F118.0
sS'u/'
p3366
F56.0
sS'u.'
p3367
F754.0
sS'u)'
p3368
F17.0
sS'u('
p3369
F27.0
sS'u+'
p3370
F74.0
sS'u*'
p3371
F193.0
sS'u%'
p3372
F10.0
sS'u$'
p3373
F110.0
sS"u'"
p3374
F42.0
sS'u&'
p3375
F113.0
sS'u!'
p3376
F504.0
sS'.5'
p3377
F445.0
sS'u#'
p3378
F94.0
sS'u"'
p3379
F3.0
sS'u]'
p3380
F36.0
sS'u\\'
p3381
F33.0
sS'u_'
p3382
F822.0
sS'u^'
p3383
F11.0
sS'u['
p3384
F46.0
sS'.@'
p3385
F38.0
sS'.['
p3386
F8.0
sS'#g'
p3387
F18.0
sS'.]'
p3388
F4.0
sS'.^'
p3389
F2.0
sS'._'
p3390
F41.0
sS'u@'
p3391
F292.0
sS'u}'
p3392
F2.0
sS'u|'
p3393
F1.0
sS'.j'
p3394
F670.0
sS'u~'
p3395
F37.0
sS'uy'
p3396
F11149.0
sS'ux'
p3397
F5949.0
sS'u{'
p3398
F0.0
sS'uz'
p3399
F12208.0
sS'uu'
p3400
F5196.0
sS'ut'
p3401
F69536.0
sS'uw'
p3402
F4107.0
sS'uv'
p3403
F20474.0
sS'uq'
p3404
F1336.0
sS'up'
p3405
F41136.0
sS'us'
p3406
F85338.0
sS'ur'
p3407
F90855.0
sS'um'
p3408
F53586.0
sS'ul'
p3409
F77034.0
sS'uo'
p3410
F4677.0
sS'un'
p3411
F113458.0
sS'ui'
p3412
F43968.0
sS'uh'
p3413
F7846.0
sS'uk'
p3414
F26709.0
sS'uj'
p3415
F6801.0
sS'ue'
p3416
F51113.0
sS'ud'
p3417
F31220.0
sS'ug'
p3418
F34407.0
sS'uf'
p3419
F15335.0
sS'ua'
p3420
F35305.0
sS'u`'
p3421
F18.0
sS'uc'
p3422
F44841.0
sS'ub'
p3423
F33707.0
sS'#e'
p3424
F44.0
sS';6'
p3425
F46.0
sS'\\3'
p3426
F4.0
sS'#d'
p3427
F29.0
sS'_5'
p3428
F745.0
sS']5'
p3429
F8.0
sS'`i'
p3430
F3.0
sS'#{'
p3431
F0.0
sS'\\&'
p3432
F0.0
sS'#z'
p3433
F8.0
sS'>='
p3434
F0.0
sS'}u'
p3435
F2.0
sS';['
p3436
F15.0
sS'`w'
p3437
F2.0
sS'gw'
p3438
F3518.0
sS'gv'
p3439
F1405.0
sS'gu'
p3440
F36579.0
sS'gt'
p3441
F7307.0
sS'gs'
p3442
F17203.0
sS'gr'
p3443
F30934.0
sS'gq'
p3444
F509.0
sS'gp'
p3445
F4034.0
sS'g~'
p3446
F36.0
sS'g}'
p3447
F5.0
sS'g|'
p3448
F2.0
sS'g{'
p3449
F2.0
sS'gz'
p3450
F3285.0
sS'gy'
p3451
F11571.0
sS'gx'
p3452
F971.0
sS'gg'
p3453
F28801.0
sS'gf'
p3454
F3115.0
sS'ge'
p3455
F79959.0
sS'gd'
p3456
F5163.0
sS'gc'
p3457
F4119.0
sS'gb'
p3458
F7619.0
sS'ga'
p3459
F78415.0
sS'g`'
p3460
F14.0
sS'go'
p3461
F52207.0
sS'gn'
p3462
F7334.0
sS'gm'
p3463
F7276.0
sS'gl'
p3464
F19077.0
sS'gk'
p3465
F4616.0
sS'gj'
p3466
F2540.0
sS'gi'
p3467
F62010.0
sS'gh'
p3468
F22942.0
sS'g_'
p3469
F1001.0
sS'g^'
p3470
F7.0
sS'g]'
p3471
F148.0
sS'g\\'
p3472
F23.0
sS'g['
p3473
F54.0
sS';@'
p3474
F1.0
sS'|9'
p3475
F1.0
sS'g@'
p3476
F460.0
sS'g7'
p3477
F3189.0
sS'g6'
p3478
F2828.0
sS'g5'
p3479
F2842.0
sS'g4'
p3480
F3902.0
sS'g3'
p3481
F4565.0
sS'g2'
p3482
F9458.0
sS'g1'
p3483
F19794.0
sS'g0'
p3484
F6999.0
sS'g?'
p3485
F69.0
sS'g>'
p3486
F3.0
sS'g='
p3487
F83.0
sS'g<'
p3488
F18.0
sS'g;'
p3489
F64.0
sS'g:'
p3490
F22.0
sS'g9'
p3491
F3274.0
sS'g8'
p3492
F3477.0
sS"g'"
p3493
F24.0
sS'g&'
p3494
F113.0
sS'g%'
p3495
F16.0
sS'g$'
p3496
F97.0
sS'g#'
p3497
F169.0
sS'g"'
p3498
F4.0
sS'g!'
p3499
F656.0
sS'g/'
p3500
F66.0
sS'g.'
p3501
F786.0
sS'g-'
p3502
F698.0
sS'g,'
p3503
F162.0
sS'g+'
p3504
F73.0
sS'g*'
p3505
F196.0
sS'g)'
p3506
F12.0
sS'g('
p3507
F20.0
sS'}q'
p3508
F1.0
sS'zl'
p3509
F5212.0
sS'zm'
p3510
F6048.0
sS'zn'
p3511
F2855.0
sS'zo'
p3512
F24410.0
sS'zh'
p3513
F6483.0
sS'zi'
p3514
F26257.0
sS'zj'
p3515
F1302.0
sS'zk'
p3516
F3401.0
sS'zd'
p3517
F2431.0
sS'ze'
p3518
F32345.0
sS'zf'
p3519
F1118.0
sS'zg'
p3520
F1709.0
sS'z`'
p3521
F10.0
sS'za'
p3522
F63667.0
sS'zb'
p3523
F2674.0
sS'zc'
p3524
F2701.0
sS'z|'
p3525
F2.0
sS'z}'
p3526
F7.0
sS'z~'
p3527
F27.0
sS'zx'
p3528
F4631.0
sS'zy'
p3529
F15716.0
sS'zz'
p3530
F27538.0
sS'z{'
p3531
F2.0
sS'zt'
p3532
F3990.0
sS'zu'
p3533
F13219.0
sS'zv'
p3534
F1135.0
sS'zw'
p3535
F2537.0
sS'zp'
p3536
F1684.0
sS'zq'
p3537
F879.0
sS'zr'
p3538
F2740.0
sS'zs'
p3539
F3428.0
sS'3{'
p3540
F3.0
sS'3z'
p3541
F883.0
sS'3y'
p3542
F1436.0
sS'3x'
p3543
F1622.0
sS'3~'
p3544
F56.0
sS'3}'
p3545
F20.0
sS'3|'
p3546
F6.0
sS'3s'
p3547
F3934.0
sS'3r'
p3548
F5803.0
sS'3q'
p3549
F523.0
sS'3p'
p3550
F1985.0
sS'z@'
p3551
F323.0
sS'3v'
p3552
F1046.0
sS'3u'
p3553
F546.0
sS'3t'
p3554
F3135.0
sS'z\\'
p3555
F16.0
sS'z]'
p3556
F34.0
sS'z^'
p3557
F28.0
sS'z_'
p3558
F811.0
sS'3o'
p3559
F916.0
sS'3n'
p3560
F3380.0
sS'3m'
p3561
F3123.0
sS'z['
p3562
F10.0
sS'3c'
p3563
F2564.0
sS'3b'
p3564
F2754.0
sS'3a'
p3565
F3948.0
sS'3`'
p3566
F44.0
sS'3g'
p3567
F1541.0
sS'3f'
p3568
F1298.0
sS'3e'
p3569
F1758.0
sS'3d'
p3570
F3033.0
sS'z,'
p3571
F92.0
sS'z-'
p3572
F351.0
sS'z.'
p3573
F705.0
sS'z/'
p3574
F70.0
sS'z('
p3575
F13.0
sS'z)'
p3576
F9.0
sS'z*'
p3577
F157.0
sS'z+'
p3578
F48.0
sS'z$'
p3579
F29.0
sS'z%'
p3580
F9.0
sS'z&'
p3581
F81.0
sS"z'"
p3582
F4.0
sS'z!'
p3583
F427.0
sS'z"'
p3584
F2.0
sS'z#'
p3585
F110.0
sS'z<'
p3586
F23.0
sS'z='
p3587
F42.0
sS'z>'
p3588
F2.0
sS'z?'
p3589
F34.0
sS'z8'
p3590
F2080.0
sS'z9'
p3591
F2078.0
sS'z:'
p3592
F10.0
sS'z;'
p3593
F8.0
sS'z4'
p3594
F2551.0
sS'z5'
p3595
F1480.0
sS'z6'
p3596
F1663.0
sS'z7'
p3597
F1934.0
sS'z0'
p3598
F4514.0
sS'z1'
p3599
F12629.0
sS'z2'
p3600
F5814.0
sS'z3'
p3601
F2455.0
sS'3;'
p3602
F34.0
sS'3:'
p3603
F86.0
sS'39'
p3604
F29812.0
sS'38'
p3605
F30770.0
sS'3?'
p3606
F170.0
sS'3>'
p3607
F7.0
sS'3='
p3608
F93.0
sS'3<'
p3609
F23.0
sS'33'
p3610
F58199.0
sS'32'
p3611
F67093.0
sS'31'
p3612
F78328.0
sS'30'
p3613
F73181.0
sS'37'
p3614
F30386.0
sS'36'
p3615
F37710.0
sS'35'
p3616
F38216.0
sS'34'
p3617
F68345.0
sS'3+'
p3618
F205.0
sS'3*'
p3619
F755.0
sS'3)'
p3620
F81.0
sS'3('
p3621
F38.0
sS'3/'
p3622
F462.0
sS'3.'
p3623
F1379.0
sS'3-'
p3624
F562.0
sS'3,'
p3625
F135.0
sS'3#'
p3626
F167.0
sS'3"'
p3627
F7.0
sS'3!'
p3628
F984.0
sS"3'"
p3629
F31.0
sS'3&'
p3630
F46.0
sS'3%'
p3631
F35.0
sS'3$'
p3632
F234.0
sS';%'
p3633
F0.0
sS';!'
p3634
F2.0
sS'~\\'
p3635
F0.0
sS'[r'
p3636
F24.0
sS'.,'
p3637
F382.0
sS'^q'
p3638
F2.0
sS'}~'
p3639
F0.0
sS'?s'
p3640
F25.0
sS";'"
p3641
F74.0
sS'}y'
p3642
F1.0
sS'[p'
p3643
F76.0
sS'~#'
p3644
F8.0
sS'}#'
p3645
F1.0
sS'!%'
p3646
F19.0
sS'_2'
p3647
F4234.0
sS'?j'
p3648
F11.0
sS'~@'
p3649
F41.0
sS'^t'
p3650
F10.0
sS'}{'
p3651
F31.0
sS'#)'
p3652
F8.0
sS'}x'
p3653
F2.0
sS'^u'
p3654
F11.0
sS"!'"
p3655
F2.0
sS'}%'
p3656
F0.0
sS',&'
p3657
F3.0
sS",'"
p3658
F5.0
sS',$'
p3659
F1.0
sS'!&'
p3660
F27.0
sS',%'
p3661
F0.0
sS',"'
p3662
F0.0
sS',#'
p3663
F2.0
sS'^w'
p3664
F10.0
sS',!'
p3665
F5.0
sS'!)'
p3666
F34.0
sS',.'
p3667
F503.0
sS',/'
p3668
F19.0
sS',,'
p3669
F337.0
sS'%-'
p3670
F0.0
sS'!!'
p3671
F5743.0
sS'%/'
p3672
F3.0
sS'%.'
p3673
F5.0
sS'%)'
p3674
F12.0
sS'%('
p3675
F6.0
sS'l@'
p3676
F889.0
sS'%*'
p3677
F16.0
sS'%%'
p3678
F97.0
sS'%$'
p3679
F37.0
sS"%'"
p3680
F0.0
sS'%&'
p3681
F45.0
sS'!('
p3682
F62.0
sS'!#'
p3683
F68.0
sS'%#'
p3684
F13.0
sS'%"'
p3685
F0.0
sS'%='
p3686
F2.0
sS'%<'
p3687
F1.0
sS'%?'
p3688
F1.0
sS'!"'
p3689
F34.0
sS'%9'
p3690
F17.0
sS'%8'
p3691
F14.0
sS'%;'
p3692
F0.0
sS'%:'
p3693
F1.0
sS'l^'
p3694
F22.0
sS'l_'
p3695
F2308.0
sS'l\\'
p3696
F40.0
sS'l]'
p3697
F156.0
sS'%1'
p3698
F55.0
sS'l['
p3699
F38.0
sS'%3'
p3700
F25.0
sS'!$'
p3701
F70.0
sS'lf'
p3702
F14008.0
sS'lg'
p3703
F8697.0
sS'ld'
p3704
F35364.0
sS'le'
p3705
F221771.0
sS'lb'
p3706
F15412.0
sS'lc'
p3707
F14292.0
sS'l`'
p3708
F15.0
sS'la'
p3709
F211425.0
sS'ln'
p3710
F6181.0
sS'lo'
p3711
F190818.0
sS'll'
p3712
F168550.0
sS'lm'
p3713
F23476.0
sS'lj'
p3714
F6702.0
sS'lk'
p3715
F15328.0
sS'lh'
p3716
F7232.0
sS'li'
p3717
F198735.0
sS'lv'
p3718
F18275.0
sS'lw'
p3719
F4924.0
sS'lt'
p3720
F19699.0
sS'lu'
p3721
F67179.0
sS'lr'
p3722
F7450.0
sS'ls'
p3723
F30252.0
sS'lp'
p3724
F11384.0
sS'lq'
p3725
F1019.0
sS'l~'
p3726
F89.0
sS',2'
p3727
F198.0
sS'l|'
p3728
F5.0
sS'l}'
p3729
F21.0
sS'lz'
p3730
F6451.0
sS'l{'
p3731
F2.0
sS'lx'
p3732
F1580.0
sS'ly'
p3733
F72134.0
sS'%m'
p3734
F30.0
sS'%l'
p3735
F34.0
sS'%o'
p3736
F12.0
sS'!*'
p3737
F136.0
sS'%i'
p3738
F11.0
sS'%h'
p3739
F17.0
sS'%k'
p3740
F12.0
sS'%j'
p3741
F11.0
sS'%e'
p3742
F15.0
sS'!-'
p3743
F4.0
sS'%g'
p3744
F18.0
sS'%f'
p3745
F26.0
sS'%a'
p3746
F38.0
sS'%`'
p3747
F0.0
sS'%c'
p3748
F34.0
sS'!,'
p3749
F1.0
sS'%}'
p3750
F0.0
sS'%|'
p3751
F0.0
sS'%~'
p3752
F0.0
sS'%y'
p3753
F12.0
sS'!/'
p3754
F9.0
sS'%{'
p3755
F0.0
sS'%z'
p3756
F3.0
sS'%u'
p3757
F4.0
sS'%t'
p3758
F30.0
sS'%w'
p3759
F5.0
sS'!.'
p3760
F34.0
sS'%q'
p3761
F1.0
sS'%p'
p3762
F25.0
sS'%s'
p3763
F34.0
sS'%r'
p3764
F27.0
sS'l&'
p3765
F198.0
sS"l'"
p3766
F85.0
sS'l$'
p3767
F131.0
sS'l%'
p3768
F19.0
sS'l"'
p3769
F6.0
sS'l#'
p3770
F521.0
sS'l!'
p3771
F1249.0
sS'l.'
p3772
F6554.0
sS'l/'
p3773
F119.0
sS'l,'
p3774
F344.0
sS'l-'
p3775
F999.0
sS'l*'
p3776
F512.0
sS'l+'
p3777
F137.0
sS'l('
p3778
F48.0
sS'l)'
p3779
F297.0
sS'l6'
p3780
F4756.0
sS'l7'
p3781
F5329.0
sS'l4'
p3782
F6709.0
sS'l5'
p3783
F4374.0
sS'l2'
p3784
F16966.0
sS'l3'
p3785
F8074.0
sS'l0'
p3786
F14006.0
sS'l1'
p3787
F37311.0
sS'l>'
p3788
F9.0
sS'l?'
p3789
F107.0
sS'l<'
p3790
F55.0
sS'l='
p3791
F135.0
sS'l:'
p3792
F49.0
sS'l;'
p3793
F361.0
sS'l8'
p3794
F5907.0
sS'l9'
p3795
F6456.0
sS'8*'
p3796
F454.0
sS'8+'
p3797
F109.0
sS'8('
p3798
F15.0
sS'8)'
p3799
F61.0
sS'8.'
p3800
F543.0
sS'8/'
p3801
F424.0
sS'8,'
p3802
F62.0
sS'8-'
p3803
F335.0
sS'8"'
p3804
F3.0
sS'8#'
p3805
F46.0
sS'8!'
p3806
F357.0
sS'8&'
p3807
F28.0
sS"8'"
p3808
F10.0
sS'8$'
p3809
F60.0
sS'7:'
p3810
F23.0
sS'8:'
p3811
F22.0
sS'8;'
p3812
F64.0
sS'88'
p3813
F64452.0
sS'89'
p3814
F65935.0
sS'8>'
p3815
F7.0
sS'8?'
p3816
F63.0
sS'8<'
p3817
F3.0
sS'8='
p3818
F48.0
sS'82'
p3819
F51541.0
sS'83'
p3820
F40374.0
sS'80'
p3821
F53730.0
sS'81'
p3822
F57163.0
sS'86'
p3823
F46163.0
sS'87'
p3824
F54626.0
sS'84'
p3825
F41683.0
sS'85'
p3826
F45833.0
sS'!:'
p3827
F15.0
sS',@'
p3828
F6.0
sS'+b'
p3829
F118.0
sS'!='
p3830
F8.0
sS'?8'
p3831
F12.0
sS']0'
p3832
F21.0
sS'!<'
p3833
F4.0
sS'!?'
p3834
F84.0
sS'?6'
p3835
F12.0
sS'!>'
p3836
F2.0
sS'8j'
p3837
F1086.0
sS'8k'
p3838
F787.0
sS'8h'
p3839
F761.0
sS'8i'
p3840
F946.0
sS'8n'
p3841
F961.0
sS'8o'
p3842
F748.0
sS'8l'
p3843
F963.0
sS'8m'
p3844
F1543.0
sS'8b'
p3845
F1407.0
sS'8c'
p3846
F1247.0
sS'8`'
p3847
F12.0
sS'8a'
p3848
F1777.0
sS'8f'
p3849
F775.0
sS'8g'
p3850
F866.0
sS'8d'
p3851
F1160.0
sS'8e'
p3852
F1490.0
sS'8z'
p3853
F379.0
sS'8{'
p3854
F2.0
sS'8x'
p3855
F464.0
sS'8y'
p3856
F541.0
sS'8~'
p3857
F28.0
sS'8|'
p3858
F2.0
sS'8}'
p3859
F10.0
sS'8r'
p3860
F1370.0
sS'8s'
p3861
F1592.0
sS'8p'
p3862
F845.0
sS'8q'
p3863
F236.0
sS'8v'
p3864
F412.0
sS'8w'
p3865
F564.0
sS'8t'
p3866
F1767.0
sS'8u'
p3867
F492.0
sS'?.'
p3868
F17.0
sS'8@'
p3869
F502.0
sS'?-'
p3870
F0.0
sS'8['
p3871
F6.0
sS'8^'
p3872
F10.0
sS'8_'
p3873
F257.0
sS'8\\'
p3874
F17.0
sS'8]'
p3875
F27.0
sS'!0'
p3876
F143.0
sS'?*'
p3877
F9.0
sS'?\\'
p3878
F0.0
sS"?'"
p3879
F1.0
sS'^a'
p3880
F10.0
sS'<f'
p3881
F1.0
sS',_'
p3882
F6.0
sS'!3'
p3883
F127.0
sS'?%'
p3884
F2.0
sS'2f'
p3885
F1613.0
sS'{2'
p3886
F10.0
sS',]'
p3887
F103.0
sS'?"'
p3888
F4.0
sS'!2'
p3889
F305.0
sS'+a'
p3890
F169.0
sS'^3'
p3891
F9.0
sS',f'
p3892
F102.0
sS']>'
p3893
F0.0
sS',g'
p3894
F131.0
sS',d'
p3895
F147.0
sS'^c'
p3896
F17.0
sS',e'
p3897
F111.0
sS'!5'
p3898
F54.0
sS',c'
p3899
F140.0
sS',`'
p3900
F2.0
sS',a'
p3901
F224.0
sS',n'
p3902
F96.0
sS'!4'
p3903
F68.0
sS',o'
p3904
F178.0
sS'~p'
p3905
F113.0
sS',l'
p3906
F213.0
sS'*|'
p3907
F3.0
sS'!a'
p3908
F126.0
sS'*~'
p3909
F227.0
sS',m'
p3910
F250.0
sS'*x'
p3911
F54.0
sS'*y'
p3912
F63.0
sS'*z'
p3913
F19.0
sS'!`'
p3914
F4.0
sS'*t'
p3915
F197.0
sS'*u'
p3916
F31.0
sS'*v'
p3917
F55.0
sS'*w'
p3918
F78.0
sS'*p'
p3919
F219.0
sS'!c'
p3920
F146.0
sS'*r'
p3921
F201.0
sS'*s'
p3922
F376.0
sS'*l'
p3923
F260.0
sS'*m'
p3924
F305.0
sS'!7'
p3925
F69.0
sS'!b'
p3926
F96.0
sS'*h'
p3927
F136.0
sS'*i'
p3928
F131.0
sS'*j'
p3929
F165.0
sS'*k'
p3930
F158.0
sS'*d'
p3931
F180.0
sS'!e'
p3932
F104.0
sS'#q'
p3933
F13.0
sS'*g'
p3934
F104.0
sS'*`'
p3935
F0.0
sS'*a'
p3936
F265.0
sS'*b'
p3937
F293.0
sS'*c'
p3938
F260.0
sS'*\\'
p3939
F0.0
sS'*]'
p3940
F5.0
sS'*^'
p3941
F21.0
sS'*_'
p3942
F26.0
sS'^<'
p3943
F1.0
sS'!g'
p3944
F67.0
sS'^>'
p3945
F1.0
sS'*['
p3946
F2.0
sS'^0'
p3947
F11.0
sS'^1'
p3948
F30.0
sS'<c'
p3949
F3.0
sS'!f'
p3950
F46.0
sS'^4'
p3951
F3.0
sS',t'
p3952
F141.0
sS'^6'
p3953
F12.0
sS'^7'
p3954
F14.0
sS'!6'
p3955
F55.0
sS'!i'
p3956
F42.0
sS'^*'
p3957
F22.0
sS',u'
p3958
F132.0
sS'^,'
p3959
F16.0
sS'^-'
p3960
F4.0
sS'^.'
p3961
F3.0
sS'!h'
p3962
F43.0
sS'\'"'
p3963
F0.0
sS',r'
p3964
F165.0
sS'^"'
p3965
F0.0
sS'78'
p3966
F51704.0
sS'*@'
p3967
F39.0
sS'!k'
p3968
F54.0
sS'^&'
p3969
F64.0
sS',s'
p3970
F224.0
sS'*<'
p3971
F2.0
sS'*='
p3972
F3.0
sS'*>'
p3973
F2.0
sS'!j'
p3974
F47.0
sS'*8'
p3975
F214.0
sS'*9'
p3976
F330.0
sS'*:'
p3977
F10.0
sS'*;'
p3978
F1.0
sS'*4'
p3979
F148.0
sS'!m'
p3980
F119.0
sS'*6'
p3981
F149.0
sS'*7'
p3982
F175.0
sS'*0'
p3983
F353.0
sS'*1'
p3984
F1117.0
sS'!9'
p3985
F90.0
sS'!l'
p3986
F152.0
sS'*,'
p3987
F2.0
sS'*-'
p3988
F252.0
sS'*.'
p3989
F34.0
sS'*/'
p3990
F155.0
sS'*('
p3991
F73.0
sS'!o'
p3992
F43.0
sS'**'
p3993
F4064.0
sS'*+'
p3994
F51.0
sS'*$'
p3995
F48.0
sS'*%'
p3996
F14.0
sS'*&'
p3997
F54.0
sS'!n'
p3998
F301.0
sS'*!'
p3999
F94.0
sS'*"'
p4000
F3.0
sS'*#'
p4001
F47.0
sS'^x'
p4002
F3.0
sS'!q'
p4003
F66.0
sS'^z'
p4004
F1.0
sS',}'
p4005
F0.0
sS'^|'
p4006
F0.0
sS'^}'
p4007
F0.0
sS'^~'
p4008
F2.0
sS'!p'
p4009
F84.0
sS'^p'
p4010
F9.0
sS',z'
p4011
F18.0
sS'^r'
p4012
F9.0
sS'^s'
p4013
F21.0
sS'!8'
p4014
F68.0
sS'!s'
p4015
F160.0
sS'^v'
p4016
F13.0
sS',{'
p4017
F1.0
sS'^h'
p4018
F37.0
sS'^i'
p4019
F38.0
sS'^j'
p4020
F84.0
sS'!r'
p4021
F90.0
sS'^l'
p4022
F10.0
sS',x'
p4023
F44.0
sS'^n'
p4024
F10.0
sS'^o'
p4025
F41.0
sS'^`'
p4026
F0.0
sS'!u'
p4027
F13.0
sS'^b'
p4028
F7.0
sS',y'
p4029
F84.0
sS'^d'
p4030
F21.0
sS'^e'
p4031
F4.0
sS'^f'
p4032
F21.0
sS'!t'
p4033
F159.0
sS'=u'
p4034
F31.0
sS'=t'
p4035
F65.0
sS'=w'
p4036
F24.0
sS'/0'
p4037
F895.0
sS'=q'
p4038
F15.0
sS'!w'
p4039
F34.0
sS'=s'
p4040
F130.0
sS'%,'
p4041
F1.0
sS'=}'
p4042
F1.0
sS'=|'
p4043
F0.0
sS'!v'
p4044
F22.0
sS'=y'
p4045
F65.0
sS'=x'
p4046
F19.0
sS'={'
p4047
F1.0
sS'=z'
p4048
F9.0
sS'=e'
p4049
F37.0
sS'!y'
p4050
F38.0
sS'=g'
p4051
F54.0
sS'=f'
p4052
F52.0
sS'=a'
p4053
F84.0
sS'=`'
p4054
F0.0
sS'=c'
p4055
F81.0
sS'!x'
p4056
F112.0
sS'=m'
p4057
F181.0
sS'=l'
p4058
F227.0
sS'=o'
p4059
F70.0
sS'=n'
p4060
F69.0
sS'=i'
p4061
F73.0
sS'!{'
p4062
F1.0
sS'=k'
p4063
F125.0
sS'=j'
p4064
F48.0
sS'q1'
p4065
F2616.0
sS'q0'
p4066
F755.0
sS'q3'
p4067
F689.0
sS'q2'
p4068
F1371.0
sS'q5'
p4069
F522.0
sS'q4'
p4070
F565.0
sS'q7'
p4071
F586.0
sS'q6'
p4072
F407.0
sS'q9'
p4073
F522.0
sS'q8'
p4074
F574.0
sS'q;'
p4075
F1.0
sS'q:'
p4076
F1.0
sS'q='
p4077
F8.0
sS'q<'
p4078
F0.0
sS'q?'
p4079
F11.0
sS'q>'
p4080
F0.0
sS'q!'
p4081
F70.0
sS'q#'
p4082
F14.0
sS'q"'
p4083
F2.0
sS'q%'
p4084
F1.0
sS'q$'
p4085
F9.0
sS"q'"
p4086
F4.0
sS'q&'
p4087
F10.0
sS'q)'
p4088
F4.0
sS'q('
p4089
F3.0
sS'q+'
p4090
F7.0
sS'q*'
p4091
F24.0
sS'q-'
p4092
F90.0
sS'q,'
p4093
F20.0
sS'q/'
p4094
F22.0
sS'q.'
p4095
F180.0
sS'=5'
p4096
F42.0
sS'=4'
p4097
F71.0
sS'=7'
p4098
F43.0
sS'=6'
p4099
F59.0
sS'=1'
p4100
F532.0
sS'=0'
p4101
F126.0
sS'=3'
p4102
F83.0
sS'!@'
p4103
F725.0
sS'=='
p4104
F175.0
sS'%!'
p4105
F14.0
sS'q['
p4106
F2.0
sS'=>'
p4107
F3.0
sS'q]'
p4108
F31.0
sS'q\\'
p4109
F6.0
sS'q_'
p4110
F91.0
sS'q^'
p4111
F3.0
sS'=%'
p4112
F3.0
sS'q@'
p4113
F49.0
sS"='"
p4114
F0.0
sS'=&'
p4115
F1.0
sS'=!'
p4116
F6.0
sS'=#'
p4117
F12.0
sS'="'
p4118
F1.0
sS'=-'
p4119
F94.0
sS'=,'
p4120
F11.0
sS'=/'
p4121
F6.0
sS'=.'
p4122
F11.0
sS'=)'
p4123
F98.0
sS'=('
p4124
F7.0
sS'=+'
p4125
F6.0
sS'=*'
p4126
F9.0
sS'qq'
p4127
F2417.0
sS'qp'
p4128
F1223.0
sS'qs'
p4129
F1376.0
sS'qr'
p4130
F995.0
sS'qu'
p4131
F46559.0
sS'qt'
p4132
F2488.0
sS'qw'
p4133
F6508.0
sS'qv'
p4134
F417.0
sS'qy'
p4135
F606.0
sS'qx'
p4136
F435.0
sS'q{'
p4137
F0.0
sS'qz'
p4138
F604.0
sS'q}'
p4139
F0.0
sS'q|'
p4140
F1.0
sS'~_'
p4141
F18.0
sS'q~'
p4142
F2.0
sS'qa'
p4143
F5527.0
sS'q`'
p4144
F8.0
sS'qc'
p4145
F767.0
sS'qb'
p4146
F975.0
sS'qe'
p4147
F1598.0
sS'qd'
p4148
F767.0
sS'qg'
p4149
F382.0
sS'qf'
p4150
F443.0
sS'qi'
p4151
F2807.0
sS'qh'
p4152
F798.0
sS'qk'
p4153
F769.0
sS'qj'
p4154
F492.0
sS'qm'
p4155
F2600.0
sS'ql'
p4156
F819.0
sS'qo'
p4157
F1721.0
sS'qn'
p4158
F721.0
sS'%5'
p4159
F28.0
sS'%4'
p4160
F15.0
sS'<k'
p4161
F4.0
sS'%7'
p4162
F21.0
sS'[l'
p4163
F62.0
sS'%6'
p4164
F23.0
sS'{='
p4165
F1.0
sS'%0'
p4166
F19.0
sS'0['
p4167
F13.0
sS'%2'
p4168
F19.0
sS'0^'
p4169
F16.0
sS'0_'
p4170
F288.0
sS'0\\'
p4171
F35.0
sS'0]'
p4172
F19.0
sS'!['
p4173
F1.0
sS')@'
p4174
F15.0
sS'})'
p4175
F4.0
sS'0@'
p4176
F502.0
sS';{'
p4177
F0.0
sS'|k'
p4178
F4.0
sS'-j'
p4179
F714.0
sS'ck'
p4180
F113346.0
sS'cj'
p4181
F3650.0
sS'ci'
p4182
F45796.0
sS'ch'
p4183
F171834.0
sS'co'
p4184
F113231.0
sS'cn'
p4185
F3595.0
sS'cm'
p4186
F6441.0
sS'cl'
p4187
F20577.0
sS'cc'
p4188
F19469.0
sS'cb'
p4189
F5273.0
sS'ca'
p4190
F126260.0
sS'c`'
p4191
F9.0
sS'cg'
p4192
F3366.0
sS'cf'
p4193
F3094.0
sS'ce'
p4194
F85712.0
sS'cd'
p4195
F5107.0
sS'c{'
p4196
F0.0
sS'cz'
p4197
F1914.0
sS'cy'
p4198
F11635.0
sS'cx'
p4199
F1476.0
sS'c~'
p4200
F29.0
sS'c}'
p4201
F5.0
sS'c|'
p4202
F2.0
sS'cs'
p4203
F9827.0
sS'cr'
p4204
F32102.0
sS'cq'
p4205
F952.0
sS'cp'
p4206
F3721.0
sS'cw'
p4207
F1857.0
sS'cv'
p4208
F2916.0
sS'cu'
p4209
F30650.0
sS'ct'
p4210
F19994.0
sS'c@'
p4211
F377.0
sS'c['
p4212
F25.0
sS'c_'
p4213
F775.0
sS'c^'
p4214
F10.0
sS'c]'
p4215
F50.0
sS'c\\'
p4216
F12.0
sS'.#'
p4217
F12.0
sS'c+'
p4218
F70.0
sS'c*'
p4219
F152.0
sS'c)'
p4220
F20.0
sS'c('
p4221
F18.0
sS'c/'
p4222
F125.0
sS'c.'
p4223
F967.0
sS'c-'
p4224
F560.0
sS'c,'
p4225
F142.0
sS'c#'
p4226
F139.0
sS'c"'
p4227
F3.0
sS'c!'
p4228
F350.0
sS"c'"
p4229
F22.0
sS'c&'
p4230
F103.0
sS'c%'
p4231
F12.0
sS'c$'
p4232
F50.0
sS'c;'
p4233
F19.0
sS'c:'
p4234
F14.0
sS'c9'
p4235
F2667.0
sS'c8'
p4236
F2357.0
sS'c?'
p4237
F24.0
sS'c>'
p4238
F5.0
sS'c='
p4239
F85.0
sS'c<'
p4240
F19.0
sS'c3'
p4241
F4092.0
sS'c2'
p4242
F7396.0
sS'c1'
p4243
F15952.0
sS'c0'
p4244
F6426.0
sS'c7'
p4245
F2379.0
sS'c6'
p4246
F1990.0
sS'c5'
p4247
F2079.0
sS'c4'
p4248
F3674.0
sS'-d'
p4249
F987.0
sS'0u'
p4250
F1115.0
sS',?'
p4251
F3.0
sS'}('
p4252
F2.0
sS'v`'
p4253
F4.0
sS'va'
p4254
F78961.0
sS'vb'
p4255
F4651.0
sS'vc'
p4256
F3373.0
sS'vd'
p4257
F2727.0
sS've'
p4258
F157682.0
sS'vf'
p4259
F1623.0
sS'vg'
p4260
F2084.0
sS'vh'
p4261
F4406.0
sS'vi'
p4262
F96117.0
sS'vj'
p4263
F2644.0
sS'vk'
p4264
F2010.0
sS'vl'
p4265
F4678.0
sS'vm'
p4266
F4140.0
sS'vn'
p4267
F2385.0
sS'vo'
p4268
F23977.0
sS'vp'
p4269
F2477.0
sS'vq'
p4270
F385.0
sS'vr'
p4271
F5916.0
sS'vs'
p4272
F5518.0
sS'vt'
p4273
F2470.0
sS'vu'
p4274
F4450.0
sS'vv'
p4275
F3023.0
sS'vw'
p4276
F1234.0
sS'vx'
p4277
F864.0
sS'vy'
p4278
F6165.0
sS'vz'
p4279
F1204.0
sS'v{'
p4280
F1.0
sS'v|'
p4281
F1.0
sS'v}'
p4282
F0.0
sS'v~'
p4283
F9.0
sS'v@'
p4284
F262.0
sS'-f'
p4285
F509.0
sS'/m'
p4286
F145.0
sS'/l'
p4287
F101.0
sS'/k'
p4288
F39.0
sS'/j'
p4289
F56.0
sS'/i'
p4290
F32.0
sS'/h'
p4291
F79.0
sS'/g'
p4292
F52.0
sS'/f'
p4293
F56.0
sS'/e'
p4294
F57.0
sS'/d'
p4295
F92.0
sS'/c'
p4296
F104.0
sS'/b'
p4297
F117.0
sS'/a'
p4298
F126.0
sS'/`'
p4299
F1.0
sS'}9'
p4300
F3.0
sS'/~'
p4301
F0.0
sS'/}'
p4302
F0.0
sS'/|'
p4303
F3.0
sS'/{'
p4304
F0.0
sS'/z'
p4305
F26.0
sS'/y'
p4306
F24.0
sS'%d'
p4307
F22.0
sS'/w'
p4308
F51.0
sS'/v'
p4309
F21.0
sS'/u'
p4310
F22.0
sS'v['
p4311
F57.0
sS'v\\'
p4312
F194.0
sS'v]'
p4313
F44.0
sS'v^'
p4314
F9.0
sS'v_'
p4315
F274.0
sS'v!'
p4316
F167.0
sS'v"'
p4317
F1.0
sS'v#'
p4318
F35.0
sS'v$'
p4319
F13.0
sS'v%'
p4320
F7.0
sS'v&'
p4321
F43.0
sS"v'"
p4322
F196.0
sS'v('
p4323
F3.0
sS'v)'
p4324
F3.0
sS'v*'
p4325
F67.0
sS'v+'
p4326
F22.0
sS'v,'
p4327
F337.0
sS'v-'
p4328
F279.0
sS'v.'
p4329
F450.0
sS'v/'
p4330
F32.0
sS'v0'
p4331
F2235.0
sS'v1'
p4332
F6564.0
sS'v2'
p4333
F3114.0
sS'v3'
p4334
F2855.0
sS'v4'
p4335
F1643.0
sS'v5'
p4336
F1057.0
sS'v6'
p4337
F1158.0
sS'v7'
p4338
F1097.0
sS'v8'
p4339
F1256.0
sS'v9'
p4340
F1048.0
sS'v:'
p4341
F9.0
sS'v;'
p4342
F25.0
sS'v<'
p4343
F4.0
sS'v='
p4344
F22.0
sS'v>'
p4345
F9.0
sS'v?'
p4346
F41.0
sS'//'
p4347
F703.0
sS'/.'
p4348
F89.0
sS'/-'
p4349
F17.0
sS'0i'
p4350
F904.0
sS'/+'
p4351
F8.0
sS'/*'
p4352
F245.0
sS'/)'
p4353
F1.0
sS'/('
p4354
F12.0
sS"/'"
p4355
F12.0
sS'0n'
p4356
F3846.0
sS'/%'
p4357
F1.0
sS'/$'
p4358
F1.0
sS'/#'
p4359
F5.0
sS'/"'
p4360
F0.0
sS'/!'
p4361
F9.0
sS']('
p4362
F0.0
sS'/?'
p4363
F8.0
sS'/>'
p4364
F1.0
sS'/='
p4365
F11.0
sS'/<'
p4366
F4.0
sS'/;'
p4367
F13.0
sS'/:'
p4368
F1.0
sS'"g'
p4369
F3.0
sS'/8'
p4370
F339.0
sS'/7'
p4371
F206.0
sS'/6'
p4372
F180.0
sS'/5'
p4373
F134.0
sS'/4'
p4374
F145.0
sS'/3'
p4375
F222.0
sS'/2'
p4376
F596.0
sS'/1'
p4377
F1441.0
sS'%x'
p4378
F5.0
sS'}+'
p4379
F1.0
sS'?_'
p4380
F16.0
sS'~]'
p4381
F2.0
sS'%v'
p4382
F4.0
sS'-t'
p4383
F1301.0
sS'?^'
p4384
F0.0
sS')0'
p4385
F26.0
sS'\\,'
p4386
F0.0
sS':='
p4387
F2.0
sS')5'
p4388
F4.0
sS')4'
p4389
F16.0
sS')7'
p4390
F9.0
sS')6'
p4391
F15.0
sS'.%'
p4392
F3.0
sS'{.'
p4393
F2.0
sS')+'
p4394
F2.0
sS'-{'
p4395
F0.0
sS'{s'
p4396
F38.0
sS'{r'
p4397
F22.0
sS'?['
p4398
F0.0
sS'{q'
p4399
F3.0
sS'%@'
p4400
F7.0
sS'-n'
p4401
F681.0
sS'{p'
p4402
F31.0
sS'{v'
p4403
F4.0
sS'%]'
p4404
F0.0
sS'[d'
p4405
F24.0
sS'%\\'
p4406
F1.0
sS'%_'
p4407
F5.0
sS'-i'
p4408
F404.0
sS'}v'
p4409
F1.0
sS'%^'
p4410
F88.0
sS'%['
p4411
F0.0
sS'-h'
p4412
F604.0
sS'}c'
p4413
F3.0
sS'-k'
p4414
F716.0
sS'h:'
p4415
F15.0
sS'h;'
p4416
F160.0
sS'h8'
p4417
F4412.0
sS'h9'
p4418
F4046.0
sS'h>'
p4419
F3.0
sS'h?'
p4420
F72.0
sS'h<'
p4421
F45.0
sS'h='
p4422
F75.0
sS'h2'
p4423
F11494.0
sS'h3'
p4424
F5823.0
sS'h0'
p4425
F9589.0
sS'h1'
p4426
F23694.0
sS'h6'
p4427
F3275.0
sS'h7'
p4428
F3794.0
sS'h4'
p4429
F5017.0
sS'h5'
p4430
F3326.0
sS'h*'
p4431
F297.0
sS'h+'
p4432
F88.0
sS'h('
p4433
F27.0
sS'h)'
p4434
F29.0
sS'h.'
p4435
F1117.0
sS'h/'
p4436
F71.0
sS'h,'
p4437
F206.0
sS'h-'
p4438
F697.0
sS'h"'
p4439
F4.0
sS'h#'
p4440
F229.0
sS'!;'
p4441
F3.0
sS'h!'
p4442
F953.0
sS'h&'
p4443
F209.0
sS"h'"
p4444
F82.0
sS'h$'
p4445
F75.0
sS'h%'
p4446
F9.0
sS'~o'
p4447
F31.0
sS'"a'
p4448
F14.0
sS'{h'
p4449
F16.0
sS'-u'
p4450
F361.0
sS'{m'
p4451
F45.0
sS'0j'
p4452
F1023.0
sS'hz'
p4453
F1400.0
sS'h{'
p4454
F1.0
sS'hx'
p4455
F1270.0
sS'hy'
p4456
F22244.0
sS'h~'
p4457
F59.0
sS'!d'
p4458
F81.0
sS'h|'
p4459
F3.0
sS'h}'
p4460
F8.0
sS'hr'
p4461
F16986.0
sS'hs'
p4462
F11498.0
sS'hp'
p4463
F4068.0
sS'hq'
p4464
F654.0
sS'hv'
p4465
F2007.0
sS'hw'
p4466
F3710.0
sS'ht'
p4467
F13967.0
sS'hu'
p4468
F40977.0
sS'hj'
p4469
F3724.0
sS'hk'
p4470
F5117.0
sS'hh'
p4471
F5465.0
sS'hi'
p4472
F123565.0
sS'hn'
p4473
F13801.0
sS'ho'
p4474
F114668.0
sS'hl'
p4475
F10960.0
sS'hm'
p4476
F10834.0
sS'hb'
p4477
F7146.0
sS'hc'
p4478
F4979.0
sS'h`'
p4479
F20.0
sS'ha'
p4480
F216920.0
sS'hf'
p4481
F2593.0
sS'hg'
p4482
F4043.0
sS'hd'
p4483
F4268.0
sS'he'
p4484
F158014.0
sS'h['
p4485
F36.0
sS'-w'
p4486
F445.0
sS'h^'
p4487
F12.0
sS'h_'
p4488
F1186.0
sS'h\\'
p4489
F60.0
sS'h]'
p4490
F105.0
sS'~h'
p4491
F81.0
sS'{['
p4492
F11.0
sS'#/'
p4493
F5.0
sS'0h'
p4494
F1070.0
sS'h@'
p4495
F683.0
sS'!]'
p4496
F1.0
sS'!\\'
p4497
F19.0
sS'!_'
p4498
F15.0
sS'!^'
p4499
F22.0
sS'{3'
p4500
F4.0
sS'-v'
p4501
F212.0
sS'{1'
p4502
F19.0
sS'{0'
p4503
F8.0
sS'{7'
p4504
F2.0
sS'{6'
p4505
F1.0
sS'{5'
p4506
F3.0
sS'{4'
p4507
F8.0
sS'{;'
p4508
F2.0
sS'{:'
p4509
F1.0
sS'{9'
p4510
F4.0
sS'{8'
p4511
F5.0
sS'{?'
p4512
F0.0
sS'{>'
p4513
F0.0
sS'*e'
p4514
F107.0
sS'{<'
p4515
F0.0
sS'{#'
p4516
F2.0
sS'{"'
p4517
F1.0
sS'{!'
p4518
F1.0
sS".'"
p4519
F3.0
sS"{'"
p4520
F0.0
sS'{&'
p4521
F0.0
sS'{%'
p4522
F0.0
sS'{$'
p4523
F0.0
sS'{+'
p4524
F1.0
sS'{*'
p4525
F9.0
sS'{)'
p4526
F2.0
sS'{('
p4527
F4.0
sS'{/'
p4528
F0.0
sS'.)'
p4529
F12.0
sS'{-'
p4530
F1.0
sS'-q'
p4531
F76.0
sS'4>'
p4532
F7.0
sS'4?'
p4533
F133.0
sS'4<'
p4534
F8.0
sS'4='
p4535
F47.0
sS'4:'
p4536
F57.0
sS'4;'
p4537
F13.0
sS'48'
p4538
F32604.0
sS'49'
p4539
F28930.0
sS'46'
p4540
F33552.0
sS'47'
p4541
F33494.0
sS'44'
p4542
F40972.0
sS'45'
p4543
F62409.0
sS'42'
p4544
F54338.0
sS'43'
p4545
F44095.0
sS'40'
p4546
F48599.0
sS'41'
p4547
F56440.0
sS'4.'
p4548
F680.0
sS'4/'
p4549
F451.0
sS'4,'
p4550
F66.0
sS'4-'
p4551
F545.0
sS'4*'
p4552
F471.0
sS'4+'
p4553
F108.0
sS'4('
p4554
F15.0
sS'4)'
p4555
F52.0
sS'4&'
p4556
F14.0
sS"4'"
p4557
F14.0
sS'4$'
p4558
F126.0
sS'4%'
p4559
F49.0
sS'4"'
p4560
F2.0
sS'4#'
p4561
F70.0
sS'4!'
p4562
F451.0
sS'4^'
p4563
F28.0
sS'4_'
p4564
F378.0
sS'4\\'
p4565
F29.0
sS'4]'
p4566
F31.0
sS'{w'
p4567
F2.0
sS'4['
p4568
F7.0
sS'{u'
p4569
F3.0
sS'{t'
p4570
F17.0
sS'{{'
p4571
F24.0
sS'{z'
p4572
F2.0
sS'{y'
p4573
F4.0
sS'{x'
p4574
F3.0
sS'{~'
p4575
F5.0
sS'{}'
p4576
F39.0
sS'{|'
p4577
F0.0
sS'{c'
p4578
F10.0
sS'{b'
p4579
F38.0
sS'{a'
p4580
F29.0
sS'{`'
p4581
F0.0
sS'{g'
p4582
F8.0
sS'{f'
p4583
F10.0
sS'{e'
p4584
F6.0
sS'{d'
p4585
F28.0
sS'{k'
p4586
F24.0
sS'.+'
p4587
F22.0
sS'{i'
p4588
F27.0
sS'-s'
p4589
F1382.0
sS'{o'
p4590
F5.0
sS'{n'
p4591
F17.0
sS'4@'
p4592
F523.0
sS'{l'
p4593
F32.0
sS'4~'
p4594
F37.0
sS'4|'
p4595
F4.0
sS'4}'
p4596
F8.0
sS'4z'
p4597
F532.0
sS'4{'
p4598
F4.0
sS'4x'
p4599
F725.0
sS'4y'
p4600
F1483.0
sS'4v'
p4601
F716.0
sS'4w'
p4602
F823.0
sS'4t'
p4603
F2446.0
sS'4u'
p4604
F4212.0
sS'4r'
p4605
F2792.0
sS'4s'
p4606
F2994.0
sS'4p'
p4607
F1416.0
sS'4q'
p4608
F341.0
sS'4n'
p4609
F2351.0
sS'4o'
p4610
F692.0
sS'4l'
p4611
F10792.0
sS'4m'
p4612
F5858.0
sS'4j'
p4613
F1878.0
sS'4k'
p4614
F1693.0
sS'4h'
p4615
F1387.0
sS'4i'
p4616
F881.0
sS'4f'
p4617
F1308.0
sS'4g'
p4618
F1573.0
sS'4d'
p4619
F2057.0
sS'4e'
p4620
F15303.0
sS'4b'
p4621
F2090.0
sS'4c'
p4622
F2008.0
sS'4`'
p4623
F19.0
sS'4a'
p4624
F2700.0
s.