(dp0
S'!'
p1
I556
sS'#'
p2
I1057
sS'"'
p3
I45
sS'%'
p4
I38
sS'$'
p5
I539
sS"'"
p6
I25
sS'&'
p7
I54
sS')'
p8
I15
sS'('
p9
I467
sS'+'
p10
I84
sS'*'
p11
I2018
sS'-'
p12
I222
sS','
p13
I103
sS'/'
p14
I114
sS'.'
p15
I403
sS'1'
p16
I127517
sS'0'
p17
I106302
sS'3'
p18
I33545
sS'2'
p19
I80459
sS'5'
p20
I29520
sS'4'
p21
I30301
sS'7'
p22
I22989
sS'6'
p23
I21531
sS'9'
p24
I25403
sS'8'
p25
I23803
sS';'
p26
I101
sS':'
p27
I26
sS'='
p28
I61
sS'<'
p29
I161
sS'?'
p30
I49
sS'>'
p31
I6
sS'@'
p32
I499
sS'['
p33
I143
sS']'
p34
I31
sS'\\'
p35
I18
sS'_'
p36
I179
sS'^'
p37
I19
sS'a'
p38
I130349
sS'`'
p39
I46
sS'c'
p40
I135403
sS'b'
p41
I139182
sS'e'
p42
I50449
sS'd'
p43
I99856
sS'g'
p44
I63536
sS'f'
p45
I56863
sS'i'
p46
I55293
sS'h'
p47
I62713
sS'k'
p48
I85580
sS'j'
p49
I112910
sS'm'
p50
I174914
sS'l'
p51
I118077
sS'o'
p52
I131764
sS'n'
p53
I98433
sS'q'
p54
I39924
sS'p'
p55
I488008
sS's'
p56
I849599
sS'r'
p57
I421727
sS'u'
p58
I56761
sS't'
p59
I517440
sS'w'
p60
I186967
sS'v'
p61
I137389
sS'y'
p62
I129135
sS'x'
p63
I48735
sS'{'
p64
I450
sS'z'
p65
I88770
sS'}'
p66
I36
sS'|'
p67
I126
sS'~'
p68
I2590
s.